LX51 LINKER/LOCATER V4.66.66.0                                                          12/27/2021  17:20:30  PAGE 1


LX51 LINKER/LOCATER V4.66.66.0, INVOKED BY:
E:\KEIL_V5_BYD\C51\BIN\LX51.EXE .\output\delay.obj, .\output\user_io_cfg.obj, .\output\timer0.obj, .\output\timer1.obj, 
>> .\output\pwm.obj, .\output\main.obj, .\output\uart.obj, .\output\key.obj, .\output\STARTUP.obj TO .\output\ca51f5 PRI
>> NT (.\lst\ca51f5.map) REMOVEUNUSED CLASSES (XDATA (X:0X0-X:0X7FF), HDATA (X:0X0-X:0X7FF), CODE (C:0X0-C:0X7FFF), CONS
>> T (C:0X0-C:0X7FFF), ECODE (C:0X0-C:0X7FFF), HCONST (C:0X0-C:0X7FFF))


CPU MODE:     8051 MODE
MEMORY MODEL: COMPACT


INPUT MODULES INCLUDED:
  .\output\delay.obj (DELAY)
         COMMENT TYPE 0: C51 V9.56.0.0
  .\output\user_io_cfg.obj (USER_IO_CFG)
         COMMENT TYPE 0: C51 V9.56.0.0
  .\output\timer0.obj (TIMER0)
         COMMENT TYPE 0: C51 V9.56.0.0
  .\output\timer1.obj (TIMER1)
         COMMENT TYPE 0: C51 V9.56.0.0
  .\output\pwm.obj (PWM)
         COMMENT TYPE 0: C51 V9.56.0.0
  .\output\main.obj (MAIN)
         COMMENT TYPE 0: C51 V9.56.0.0
  .\output\uart.obj (UART)
         COMMENT TYPE 0: C51 V9.56.0.0
  .\output\key.obj (KEY)
         COMMENT TYPE 0: C51 V9.56.0.0
  .\output\STARTUP.obj (?C_STARTUP)
         COMMENT TYPE 1: A51 / ASM51 Assembler
  E:\KEIL_V5_BYD\C51\LIB\C51C.LIB (?C_INIT)
         COMMENT TYPE 1: A51 / ASM51 Assembler
  E:\KEIL_V5_BYD\C51\LIB\C51C.LIB (?C?COPY)
         COMMENT TYPE 1: A51 / ASM51 Assembler
  E:\KEIL_V5_BYD\C51\LIB\C51C.LIB (?C?IMUL)
         COMMENT TYPE 1: A51 / ASM51 Assembler
  E:\KEIL_V5_BYD\C51\LIB\C51C.LIB (?C?UIDIV)
         COMMENT TYPE 1: A51 / ASM51 Assembler
  E:\KEIL_V5_BYD\C51\LIB\C51C.LIB (?C?ULCMP)
         COMMENT TYPE 1: A51 / ASM51 Assembler
  E:\KEIL_V5_BYD\C51\LIB\C51C.LIB (?C?ULSHR)
         COMMENT TYPE 1: A51 / ASM51 Assembler
  E:\KEIL_V5_BYD\C51\LIB\C51C.LIB (?C?LSHL)
         COMMENT TYPE 1: A51 / ASM51 Assembler
  E:\KEIL_V5_BYD\C51\LIB\C51C.LIB (?C?LSTPDATA)
         COMMENT TYPE 1: A51 / ASM51 Assembler
  E:\KEIL_V5_BYD\C51\LIB\C51C.LIB (?C?LSTKPDATA)
         COMMENT TYPE 1: A51 / ASM51 Assembler
  E:\KEIL_V5_BYD\C51\LIB\C51C.LIB (?C?LCASE)
         COMMENT TYPE 1: A51 / ASM51 Assembler


ACTIVE MEMORY CLASSES OF MODULE:  .\output\ca51f5 (DELAY)

BASE        START       END         USED      MEMORY CLASS
==========================================================
X:000000H   X:000000H   X:0007FFH   00004BH   XDATA
X:000000H   X:000000H   X:0007FFH             HDATA
C:000000H   C:000000H   C:007FFFH   0012F9H   CODE
C:000000H   C:000000H   C:007FFFH   000003H   CONST
C:000000H   C:000000H   C:007FFFH             ECODE
B00:0000H   C:000000H   C:007FFFH             HCONST
X:000000H   X:000000H   X:0000FFH   0000C5H   PDATA
I:000000H   I:000000H   I:0000FFH   000001H   IDATA
I:000000H   I:000000H   I:00007FH   000008H   DATA

LX51 LINKER/LOCATER V4.66.66.0                                                        12/27/2021  17:20:30  PAGE 2



MEMORY MAP OF MODULE:  .\output\ca51f5 (DELAY)


START     STOP      LENGTH    ALIGN  RELOC    MEMORY CLASS   SEGMENT NAME
=========================================================================

* * * * * * * * * * *   D A T A   M E M O R Y   * * * * * * * * * * * * *
000000H   000007H   000008H   ---    AT..     DATA           "REG BANK 0"
000008H   000008H   000001H   BYTE   UNIT     IDATA          ?STACK

* * * * * * * * * * *   C O D E   M E M O R Y   * * * * * * * * * * * * *
000000H   000002H   000003H   ---    OFFS..   CODE           ?CO??C_STARTUP?0
000003H   000009H   000007H   BYTE   UNIT     CODE           ?PR?TIMER1_ISR?TIMER1
00000AH   00000AH   000001H   ---    ---      **GAP**
00000BH   00000DH   000003H   BYTE   OFFS..   CODE           ?TIMER0?0000B
00000EH   000010H   000003H   BYTE   UNIT     CONST          ?CO?MAIN
000011H   00001AH   00000AH   ---    ---      **GAP**
00001BH   00001DH   000003H   BYTE   OFFS..   CODE           ?TIMER1?0001B
00001EH   000657H   00063AH   BYTE   UNIT     CODE           ?PR?LED_RGB_REFREASH?MAIN
000658H   00096DH   000316H   BYTE   UNIT     CODE           ?PR?KEYACTION?KEY
00096EH   000C2AH   0002BDH   BYTE   UNIT     CODE           ?PR?TIMER0_ISR?TIMER0
000C2BH   000E1DH   0001F3H   BYTE   UNIT     CODE           ?C?LIB_CODE
000E1EH   000F6FH   000152H   BYTE   UNIT     CODE           ?PR?SEND_LED_DATA?MAIN
000F70H   001056H   0000E7H   BYTE   UNIT     CODE           ?PR?KEYSCAN?KEY
001057H   001106H   0000B0H   BYTE   UNIT     CODE           ?C_INITSEG
001107H   001192H   00008CH   BYTE   UNIT     CODE           ?C_C51STARTUP
001193H   001209H   000077H   BYTE   UNIT     CODE           ?PR?MAIN?MAIN
00120AH   001270H   000067H   BYTE   UNIT     CODE           ?PR?IO_INIT?USER_IO_CFG
001271H   0012C6H   000056H   BYTE   UNIT     CODE           ?PR?_USERIRCODECHANGE?KEY
0012C7H   0012F6H   000030H   BYTE   UNIT     CODE           ?PR?PWM2_INIT?PWM
0012F7H   001306H   000010H   BYTE   UNIT     CODE           ?PR?TIMER0_INIT?TIMER0

* * * * * * * * * * *  X D A T A   M E M O R Y  * * * * * * * * * * * * *
000000H   00009FH   0000A0H   BYTE   INPAGE   PDATA          ?PD?MAIN
0000A0H   0000AFH   000010H   BYTE   INPAGE   PDATA          ?PD?KEY
0000B0H   0000BDH   00000EH   BYTE   INPAGE   PDATA          ?PD?TIMER0
0000BEH   0000C4H   000007H   BYTE   INPAGE   PDATA          _PDATA_GROUP_
0000C5H   007FFFH   007F3BH   ---    ---      **GAP**
008000H   008000H   000001H   BYTE   OFFS..   XDATA          ?XD?MAIN?52
008001H   008001H   000001H   BYTE   OFFS..   XDATA          ?XD?MAIN?55
008002H   008002H   000001H   BYTE   OFFS..   XDATA          ?XD?MAIN?58
008003H   008003H   000001H   BYTE   OFFS..   XDATA          ?XD?MAIN?62
008004H   008004H   000001H   BYTE   OFFS..   XDATA          ?XD?MAIN?67
008005H   008005H   000001H   BYTE   OFFS..   XDATA          ?XD?MAIN?70
008006H   008006H   000001H   BYTE   OFFS..   XDATA          ?XD?MAIN?72
008007H   008007H   000001H   BYTE   OFFS..   XDATA          ?XD?MAIN?74
008008H   008017H   000010H   ---    ---      **GAP**
008018H   008018H   000001H   BYTE   OFFS..   XDATA          ?XD?MAIN?61
008019H   008019H   000001H   BYTE   OFFS..   XDATA          ?XD?MAIN?66
00801AH   00801AH   000001H   BYTE   OFFS..   XDATA          ?XD?MAIN?69
00801BH   00801BH   000001H   BYTE   OFFS..   XDATA          ?XD?MAIN?71
00801CH   00801CH   000001H   BYTE   OFFS..   XDATA          ?XD?MAIN?73
00801DH   00801DH   000001H   BYTE   OFFS..   XDATA          ?XD?MAIN?0
00801EH   00802FH   000012H   ---    ---      **GAP**
008030H   008030H   000001H   BYTE   OFFS..   XDATA          ?XD?MAIN?43
008031H   008031H   000001H   BYTE   OFFS..   XDATA          ?XD?MAIN?44
008032H   008032H   000001H   BYTE   OFFS..   XDATA          ?XD?MAIN?38
008033H   008033H   000001H   BYTE   OFFS..   XDATA          ?XD?MAIN?29
008034H   008034H   000001H   BYTE   OFFS..   XDATA          ?XD?MAIN?26
008035H   00804FH   00001BH   ---    ---      **GAP**
008050H   008050H   000001H   BYTE   OFFS..   XDATA          ?XD?MAIN?21
008051H   008051H   000001H   BYTE   OFFS..   XDATA          ?XD?MAIN?12
008052H   008052H   000001H   BYTE   OFFS..   XDATA          ?XD?MAIN?23
008053H   008053H   000001H   BYTE   OFFS..   XDATA          ?XD?MAIN?13
LX51 LINKER/LOCATER V4.66.66.0                                                        12/27/2021  17:20:30  PAGE 3


008054H   008054H   000001H   BYTE   OFFS..   XDATA          ?XD?MAIN?24
008055H   008055H   000001H   BYTE   OFFS..   XDATA          ?XD?MAIN?15
008056H   008056H   000001H   BYTE   OFFS..   XDATA          ?XD?MAIN?25
008057H   008057H   000001H   BYTE   OFFS..   XDATA          ?XD?MAIN?18
008058H   008058H   000001H   BYTE   OFFS..   XDATA          ?XD?MAIN?27
008059H   008059H   000001H   BYTE   OFFS..   XDATA          ?XD?MAIN?20
00805AH   00805AH   000001H   BYTE   OFFS..   XDATA          ?XD?MAIN?28
00805BH   00805BH   000001H   BYTE   OFFS..   XDATA          ?XD?MAIN?22
00805CH   00805CH   000001H   BYTE   OFFS..   XDATA          ?XD?MAIN?36
00805DH   00805DH   000001H   BYTE   OFFS..   XDATA          ?XD?MAIN?34
00805EH   00805FH   000002H   ---    ---      **GAP**
008060H   008060H   000001H   BYTE   OFFS..   XDATA          ?XD?MAIN?35
008061H   008061H   000001H   BYTE   OFFS..   XDATA          ?XD?MAIN?33
008062H   0080FFH   00009EH   ---    ---      **GAP**
008100H   008100H   000001H   BYTE   OFFS..   XDATA          ?XD?MAIN?6
008101H   008101H   000001H   BYTE   OFFS..   XDATA          ?XD?MAIN?17
008102H   008102H   000001H   BYTE   OFFS..   XDATA          ?XD?MAIN?2
008103H   008103H   000001H   BYTE   OFFS..   XDATA          ?XD?MAIN?5
008104H   008104H   000001H   ---    ---      **GAP**
008105H   008105H   000001H   BYTE   OFFS..   XDATA          ?XD?MAIN?30
008106H   008106H   000001H   BYTE   OFFS..   XDATA          ?XD?MAIN?39
008107H   008107H   000001H   BYTE   OFFS..   XDATA          ?XD?MAIN?16
008108H   008108H   000001H   BYTE   OFFS..   XDATA          ?XD?MAIN?1
008109H   008109H   000001H   BYTE   OFFS..   XDATA          ?XD?MAIN?65
00810AH   00810AH   000001H   BYTE   OFFS..   XDATA          ?XD?MAIN?3
00810BH   00810BH   000001H   BYTE   OFFS..   XDATA          ?XD?MAIN?10
00810CH   00810CH   000001H   BYTE   OFFS..   XDATA          ?XD?MAIN?8
00810DH   00810DH   000001H   BYTE   OFFS..   XDATA          ?XD?MAIN?11
00810EH   00810EH   000001H   BYTE   OFFS..   XDATA          ?XD?MAIN?9
00810FH   00810FH   000001H   BYTE   OFFS..   XDATA          ?XD?MAIN?4
008110H   008110H   000001H   BYTE   OFFS..   XDATA          ?XD?MAIN?37
008111H   008111H   000001H   BYTE   OFFS..   XDATA          ?XD?MAIN?40
008112H   008112H   000001H   BYTE   OFFS..   XDATA          ?XD?MAIN?19
008113H   00811FH   00000DH   ---    ---      **GAP**
008120H   008120H   000001H   BYTE   OFFS..   XDATA          ?XD?MAIN?47
008121H   008121H   000001H   BYTE   OFFS..   XDATA          ?XD?MAIN?48
008122H   008122H   000001H   BYTE   OFFS..   XDATA          ?XD?MAIN?49
008123H   008123H   000001H   BYTE   OFFS..   XDATA          ?XD?MAIN?51
008124H   008124H   000001H   BYTE   OFFS..   XDATA          ?XD?MAIN?54
008125H   008125H   000001H   BYTE   OFFS..   XDATA          ?XD?MAIN?57
008126H   008126H   000001H   BYTE   OFFS..   XDATA          ?XD?MAIN?60
008127H   008127H   000001H   BYTE   OFFS..   XDATA          ?XD?MAIN?64
008128H   008137H   000010H   ---    ---      **GAP**
008138H   008138H   000001H   BYTE   OFFS..   XDATA          ?XD?MAIN?50
008139H   008139H   000001H   BYTE   OFFS..   XDATA          ?XD?MAIN?53
00813AH   00813AH   000001H   BYTE   OFFS..   XDATA          ?XD?MAIN?56
00813BH   00813BH   000001H   BYTE   OFFS..   XDATA          ?XD?MAIN?59
00813CH   00813CH   000001H   BYTE   OFFS..   XDATA          ?XD?MAIN?63
00813DH   00813DH   000001H   BYTE   OFFS..   XDATA          ?XD?MAIN?68
00813EH   00FBFFH   007AC2H   ---    ---      **GAP**
00FC00H   00FC00H   000001H   BYTE   OFFS..   XDATA          ?XD?MAIN?46
00FC01H   00FC01H   000001H   BYTE   OFFS..   XDATA          ?XD?MAIN?42
00FC02H   00FC02H   000001H   BYTE   OFFS..   XDATA          ?XD?MAIN?45
00FC03H   00FC03H   000001H   BYTE   OFFS..   XDATA          ?XD?MAIN?14
00FC04H   00FC04H   000001H   BYTE   OFFS..   XDATA          ?XD?MAIN?41
00FC05H   00FC05H   000001H   BYTE   OFFS..   XDATA          ?XD?MAIN?32
00FC06H   00FC06H   000001H   BYTE   OFFS..   XDATA          ?XD?MAIN?31
00FC07H   00FC0CH   000006H   ---    ---      **GAP**
00FC0DH   00FC0DH   000001H   BYTE   OFFS..   XDATA          ?XD?MAIN?7

* * * * * * * * *   R E M O V E D     S E G M E N T S   * * * * * * * *
   *DEL*:           000016H   BYTE   UNIT     CODE           ?PR?_DELAY_50US?DELAY
   *DEL*:           000023H   BYTE   UNIT     CODE           ?PR?_DELAY_MS?DELAY
   *DEL*:           000002H   BYTE   INPAGE   PDATA          ?PD?_DELAY_MS?DELAY
   *DEL*:           000010H   BYTE   UNIT     CODE           ?PR?TIMER1_INIT?TIMER1
LX51 LINKER/LOCATER V4.66.66.0                                                        12/27/2021  17:20:30  PAGE 4





OVERLAY MAP OF MODULE:   .\output\ca51f5 (DELAY)


FUNCTION/MODULE             PDATA_GROUP
--> CALLED FUNCTION/MODULE  START  STOP
=======================================
TIMER0_ISR/TIMER0           ----- -----
  +--> _USERIRCODECHANGE/KEY

_USERIRCODECHANGE/KEY       00BEH 00BFH

*** NEW ROOT **************

TIMER1_ISR/TIMER1           ----- -----

*** NEW ROOT **************

?C_C51STARTUP               ----- -----
  +--> MAIN/MAIN
  +--> ?C_INITSEG

MAIN/MAIN                   ----- -----
  +--> IO_INIT/USER_IO_CFG
  +--> TIMER0_INIT/TIMER0
  +--> PWM2_INIT/PWM
  +--> KEYSCAN/KEY
  +--> KEYACTION/KEY
  +--> LED_RGB_REFREASH/MAIN
  +--> SEND_LED_DATA/MAIN

IO_INIT/USER_IO_CFG         ----- -----

TIMER0_INIT/TIMER0          ----- -----

PWM2_INIT/PWM               ----- -----

KEYSCAN/KEY                 00C0H 00C0H

KEYACTION/KEY               ----- -----

LED_RGB_REFREASH/MAIN       00C0H 00C1H

SEND_LED_DATA/MAIN          00C0H 00C4H
  +--> ?CO?MAIN

?CO?MAIN                    ----- -----

?C_INITSEG                  ----- -----



PUBLIC SYMBOLS OF MODULE:  .\output\ca51f5 (DELAY)


      VALUE       CLASS    TYPE      PUBLIC SYMBOL NAME
      =================================================
      00000000H   NUMBER   ---       ?C?CODESEG
      01000CFBH   CODE     ---       ?C?COPY
      01000D21H   CODE     ---       ?C?IMUL
      01000DE4H   CODE     ---       ?C?LCASE
      01000DACH   CODE     ---       ?C?LSHL
      01000DCBH   CODE     ---       ?C?LSTKPDATA
LX51 LINKER/LOCATER V4.66.66.0                                                        12/27/2021  17:20:30  PAGE 5


      01000DBFH   CODE     ---       ?C?LSTPDATA
      01000D33H   CODE     ---       ?C?UIDIV
      01000D88H   CODE     ---       ?C?ULCMP
      01000D99H   CODE     ---       ?C?ULSHR
      00000000H   NUMBER   ---       ?C?XDATASEG
      0100114EH   CODE     ---       ?C_START
      01000000H   CODE     ---       ?C_STARTUP
*DEL*:00000000H   CODE     ---       _Delay_50us
*DEL*:00000000H   CODE     ---       _Delay_ms
      01001271H   CODE     ---       _userIrCodeChange
*SFR* 000000D0H.6 DATA     BIT       AC
*SFR* 000000E0H   DATA     BYTE      ACC
*SFR* 000000DEH   DATA     BYTE      AK0CON
*SFR* 000000DFH   DATA     BYTE      AK1CON
*SFR* 000000F4H   DATA     BYTE      ATK0CH
*SFR* 000000F3H   DATA     BYTE      ATK0CL
      02008051H   XDATA    BYTE      ATK0NH
      02008050H   XDATA    BYTE      ATK0NL
*SFR* 000000F6H   DATA     BYTE      ATK1CH
*SFR* 000000F5H   DATA     BYTE      ATK1CL
      02008053H   XDATA    BYTE      ATK1NH
      02008052H   XDATA    BYTE      ATK1NL
*SFR* 000000E9H   DATA     BYTE      ATK2CH
*SFR* 000000F7H   DATA     BYTE      ATK2CL
      02008055H   XDATA    BYTE      ATK2NH
      02008054H   XDATA    BYTE      ATK2NL
*SFR* 000000EBH   DATA     BYTE      ATK3CH
*SFR* 000000EAH   DATA     BYTE      ATK3CL
      02008057H   XDATA    BYTE      ATK3NH
      02008056H   XDATA    BYTE      ATK3NL
*SFR* 000000EDH   DATA     BYTE      ATK4CH
*SFR* 000000ECH   DATA     BYTE      ATK4CL
      02008059H   XDATA    BYTE      ATK4NH
      02008058H   XDATA    BYTE      ATK4NL
*SFR* 000000EFH   DATA     BYTE      ATK5CH
*SFR* 000000EEH   DATA     BYTE      ATK5CL
      0200805BH   XDATA    BYTE      ATK5NH
      0200805AH   XDATA    BYTE      ATK5NL
*SFR* 000000F0H   DATA     BYTE      B
      02008030H   XDATA    BYTE      CKCON
      02008031H   XDATA    BYTE      CKDIV
*SFR* 000000D0H.7 DATA     BIT       CY
*SFR* 00000083H   DATA     BYTE      DP0H
*SFR* 00000082H   DATA     BYTE      DP0L
*SFR* 00000085H   DATA     BYTE      DP1H
*SFR* 00000084H   DATA     BYTE      DP1L
*SFR* 000000D0H.1 DATA     BIT       DPS
*SFR* 000000A8H.7 DATA     BIT       EA
*SFR* 000000D1H   DATA     BYTE      EP0CON
*SFR* 000000D2H   DATA     BYTE      EP1CON
*SFR* 000000D3H   DATA     BYTE      EP2CON
*SFR* 000000D4H   DATA     BYTE      EPIF
*SFR* 000000A8H.4 DATA     BIT       ES0
*SFR* 000000A8H.1 DATA     BIT       ET0
*SFR* 000000A8H.3 DATA     BIT       ET1
*SFR* 000000A8H   DATA     BIT       EX0
*SFR* 000000A8H.2 DATA     BIT       EX1
*SFR* 000000D0H.5 DATA     BIT       F0
      020000BAH   PDATA    BYTE      F_1ms
      020000BDH   PDATA    BYTE      F_1s
      020000AEH   PDATA    BYTE      F_keyDone
      0200FC01H   XDATA    BYTE      FSCMD
      0200FC02H   XDATA    BYTE      FSDAT
*SFR* 000000C2H   DATA     BYTE      I2CADM
*SFR* 000000C1H   DATA     BYTE      I2CADR
LX51 LINKER/LOCATER V4.66.66.0                                                        12/27/2021  17:20:30  PAGE 6


*SFR* 000000C0H   DATA     BYTE      I2CCON
*SFR* 000000C3H   DATA     BYTE      I2CCR
*SFR* 000000C4H   DATA     BYTE      I2CDAT
*SFR* 000000C6H   DATA     BYTE      I2CFLG
      02008101H   XDATA    BYTE      I2CIOS
*SFR* 000000C5H   DATA     BYTE      I2CSTA
*SFR* 0000008EH   DATA     BYTE      IDLST
*SFR* 000000A8H   DATA     BYTE      IE
*SFR* 00000088H.1 DATA     BIT       IE0
*SFR* 00000088H.3 DATA     BIT       IE1
      02008032H   XDATA    BYTE      IHCFG
      02008034H   XDATA    BYTE      ILCFGH
      02008033H   XDATA    BYTE      ILCFGL
*SFR* 000000A8H.4 DATA     BIT       INT2EN
*SFR* 000000A8H.5 DATA     BIT       INT3EN
*SFR* 000000A8H.6 DATA     BIT       INT4EN
      0100120AH   CODE     ---       io_init
*SFR* 000000B8H   DATA     BYTE      IP
*SFR* 00000088H   DATA     BIT       IT0
*SFR* 00000088H.2 DATA     BIT       IT1
      01000658H   CODE     ---       keyAction
      020000A2H   PDATA    DWORD     keyCode
      020000A0H   PDATA    WORD      keyDownTime_ms
      01000F70H   CODE     ---       keyScan
      020000AAH   PDATA    DWORD     keySta
      020000A6H   PDATA    DWORD     keyStaBackup
      020000AFH   PDATA    ---       keyStaBuff
      02000003H   PDATA    ---       LED_DAT
      0100001EH   CODE     ---       led_rgb_refreash
*SFR* 000000D7H   DATA     BYTE      LEDAT0
*SFR* 000000C7H   DATA     BYTE      LEDAT1
      02008061H   XDATA    BYTE      LEDUTH
      02008060H   XDATA    BYTE      LEDUTL
*SFR* 000000CFH   DATA     BYTE      LEDWTMH
*SFR* 000000CEH   DATA     BYTE      LEDWTML
*SFR* 000000BFH   DATA     BYTE      LEFLG
      02000093H   PDATA    ---       light
      0200FC03H   XDATA    BYTE      LOCK
      02008105H   XDATA    BYTE      LVDCFG
*SFR* 000000E8H   DATA     BYTE      LVDCON
      01001193H   CODE     ---       main
      0200FC00H   XDATA    BYTE      MECON
      0200FC0DH   XDATA    BYTE      MEMPTEC
*SFR* 000000D0H.2 DATA     BIT       OV
*SFR* 000000D0H   DATA     BIT       P
*SFR* 00000080H   DATA     BYTE      P0
*SFR* 00000080H   DATA     BIT       P00
      02008120H   XDATA    BYTE      P00C
      02008000H   XDATA    BYTE      P00F
*SFR* 00000080H.1 DATA     BIT       P01
      02008121H   XDATA    BYTE      P01C
      02008001H   XDATA    BYTE      P01F
*SFR* 00000080H.2 DATA     BIT       P02
      02008122H   XDATA    BYTE      P02C
      02008002H   XDATA    BYTE      P02F
*SFR* 00000080H.3 DATA     BIT       P03
      02008123H   XDATA    BYTE      P03C
      02008003H   XDATA    BYTE      P03F
*SFR* 00000080H.4 DATA     BIT       P04
      02008124H   XDATA    BYTE      P04C
      02008004H   XDATA    BYTE      P04F
*SFR* 00000080H.5 DATA     BIT       P05
      02008125H   XDATA    BYTE      P05C
      02008005H   XDATA    BYTE      P05F
*SFR* 00000080H.6 DATA     BIT       P06
LX51 LINKER/LOCATER V4.66.66.0                                                        12/27/2021  17:20:30  PAGE 7


      02008126H   XDATA    BYTE      P06C
      02008006H   XDATA    BYTE      P06F
*SFR* 00000080H.7 DATA     BIT       P07
      02008127H   XDATA    BYTE      P07C
      02008007H   XDATA    BYTE      P07F
*SFR* 000000B0H   DATA     BYTE      P3
*SFR* 000000B0H   DATA     BIT       P30
      02008138H   XDATA    BYTE      P30C
      02008018H   XDATA    BYTE      P30F
*SFR* 000000B0H.1 DATA     BIT       P31
      02008139H   XDATA    BYTE      P31C
      02008019H   XDATA    BYTE      P31F
*SFR* 000000B0H.2 DATA     BIT       P32
      0200813AH   XDATA    BYTE      P32C
      0200801AH   XDATA    BYTE      P32F
*SFR* 000000B0H.3 DATA     BIT       P33
      0200813BH   XDATA    BYTE      P33C
      0200801BH   XDATA    BYTE      P33F
*SFR* 000000B0H.4 DATA     BIT       P34
      0200813CH   XDATA    BYTE      P34C
      0200801CH   XDATA    BYTE      P34F
*SFR* 000000B0H.5 DATA     BIT       P35
      0200813DH   XDATA    BYTE      P35C
      0200801DH   XDATA    BYTE      P35F
      0200FC04H   XDATA    BYTE      PADRD
*SFR* 00000087H   DATA     BYTE      PCON
*SFR* 000000B8H.4 DATA     BIT       PS0
*SFR* 000000B8H.6 DATA     BIT       PS1
*SFR* 000000D0H   DATA     BYTE      PSW
*SFR* 000000B8H.1 DATA     BIT       PT0
*SFR* 000000B8H.3 DATA     BIT       PT1
*SFR* 000000B8H.5 DATA     BIT       PT2
      0200FC06H   XDATA    BYTE      PTSH
      0200FC05H   XDATA    BYTE      PTSL
*SFR* 00000086H   DATA     BYTE      PWCON
*SFR* 000000B1H   DATA     BYTE      PWM0CKD
*SFR* 000000B9H   DATA     BYTE      PWM0CON
*SFR* 000000AAH   DATA     BYTE      PWM0DIVH
*SFR* 000000A9H   DATA     BYTE      PWM0DIVL
*SFR* 0000009CH   DATA     BYTE      PWM0DUTH
*SFR* 0000009BH   DATA     BYTE      PWM0DUTL
*SFR* 000000B2H   DATA     BYTE      PWM1CKD
*SFR* 000000BAH   DATA     BYTE      PWM1CON
*SFR* 000000ACH   DATA     BYTE      PWM1DIVH
*SFR* 000000ABH   DATA     BYTE      PWM1DIVL
*SFR* 0000009EH   DATA     BYTE      PWM1DUTH
*SFR* 0000009DH   DATA     BYTE      PWM1DUTL
      010012C7H   CODE     ---       pwm2_init
*SFR* 000000B3H   DATA     BYTE      PWM2CKD
*SFR* 000000BBH   DATA     BYTE      PWM2CON
*SFR* 000000AEH   DATA     BYTE      PWM2DIVH
*SFR* 000000ADH   DATA     BYTE      PWM2DIVL
*SFR* 00000091H   DATA     BYTE      PWM2DUTH
*SFR* 0000009FH   DATA     BYTE      PWM2DUTL
*SFR* 000000B4H   DATA     BYTE      PWM3CKD
*SFR* 000000BCH   DATA     BYTE      PWM3CON
*SFR* 000000A4H   DATA     BYTE      PWM3DIVH
*SFR* 000000AFH   DATA     BYTE      PWM3DIVL
*SFR* 00000093H   DATA     BYTE      PWM3DUTH
*SFR* 00000092H   DATA     BYTE      PWM3DUTL
*SFR* 000000B5H   DATA     BYTE      PWM4CKD
*SFR* 000000BDH   DATA     BYTE      PWM4CON
*SFR* 000000A6H   DATA     BYTE      PWM4DIVH
*SFR* 000000A5H   DATA     BYTE      PWM4DIVL
*SFR* 00000095H   DATA     BYTE      PWM4DUTH
LX51 LINKER/LOCATER V4.66.66.0                                                        12/27/2021  17:20:30  PAGE 8


*SFR* 00000094H   DATA     BYTE      PWM4DUTL
*SFR* 000000B6H   DATA     BYTE      PWM5CKD
*SFR* 000000BEH   DATA     BYTE      PWM5CON
*SFR* 0000009AH   DATA     BYTE      PWM5DIVH
*SFR* 000000A7H   DATA     BYTE      PWM5DIVL
*SFR* 00000097H   DATA     BYTE      PWM5DUTH
*SFR* 00000096H   DATA     BYTE      PWM5DUTL
*SFR* 00000090H   DATA     BYTE      PWMEN
*SFR* 000000B7H   DATA     BYTE      PWMIF
*SFR* 000000B8H   DATA     BIT       PX0
*SFR* 000000B8H.2 DATA     BIT       PX1
*SFR* 00000098H.2 DATA     BIT       RB8
*SFR* 00000098H.4 DATA     BIT       REN
*SFR* 00000098H   DATA     BIT       RI0
*SFR* 000000D0H.3 DATA     BIT       RS0
*SFR* 000000D0H.4 DATA     BIT       RS1
*SFR* 00000099H   DATA     BYTE      S0BUF
*SFR* 00000098H   DATA     BYTE      S0CON
      01000E1EH   CODE     ---       send_led_data
*SFR* 00000098H.7 DATA     BIT       SM0
*SFR* 00000098H.6 DATA     BIT       SM1
*SFR* 00000098H.5 DATA     BIT       SM2
*SFR* 00000081H   DATA     BYTE      SP
      02008100H   XDATA    BYTE      SPMAX
*SFR* 0000008FH   DATA     BYTE      STPST
*SFR* 000000CBH   DATA     BYTE      T2CH
*SFR* 000000CAH   DATA     BYTE      T2CL
*SFR* 000000C8H   DATA     BYTE      T2CON
*SFR* 000000C8H.3 DATA     BIT       T2IE
*SFR* 000000C9H   DATA     BYTE      T2MOD
*SFR* 000000C8H   DATA     BIT       T2P0
*SFR* 000000C8H.1 DATA     BIT       T2P1
*SFR* 000000C8H.4 DATA     BIT       T2R0
*SFR* 000000C8H.5 DATA     BIT       T2R1
      020000BBH   PDATA    WORD      T_1ms
*SFR* 00000098H.3 DATA     BIT       TB8
*SFR* 00000088H   DATA     BYTE      TCON
*SFR* 00000088H.5 DATA     BIT       TF0
*SFR* 00000088H.7 DATA     BIT       TF1
*SFR* 000000C8H.7 DATA     BIT       TF2
*SFR* 0000008CH   DATA     BYTE      TH0
*SFR* 0000008DH   DATA     BYTE      TH1
*SFR* 000000CDH   DATA     BYTE      TH2
*SFR* 00000098H.1 DATA     BIT       TI0
      010012F7H   CODE     ---       timer0_init
      0100096EH   CODE     ---       TIMER0_ISR
*DEL*:00000000H   CODE     ---       timer1_init
      01000003H   CODE     ---       TIMER1_ISR
*SFR* 000000FCH   DATA     BYTE      TK0CHS
*SFR* 000000E2H   DATA     BYTE      TK0MSH
*SFR* 000000E1H   DATA     BYTE      TK0MSL
*SFR* 000000FDH   DATA     BYTE      TK1CHS
*SFR* 000000E4H   DATA     BYTE      TK1MSH
*SFR* 000000E3H   DATA     BYTE      TK1MSL
*SFR* 000000FEH   DATA     BYTE      TK2CHS
*SFR* 000000E6H   DATA     BYTE      TK2MSH
*SFR* 000000E5H   DATA     BYTE      TK2MSL
*SFR* 000000FFH   DATA     BYTE      TK3CHS
*SFR* 000000D9H   DATA     BYTE      TK3MSH
*SFR* 000000E7H   DATA     BYTE      TK3MSL
*SFR* 000000F1H   DATA     BYTE      TK4CHS
*SFR* 000000DBH   DATA     BYTE      TK4MSH
*SFR* 000000DAH   DATA     BYTE      TK4MSL
*SFR* 000000F2H   DATA     BYTE      TK5CHS
*SFR* 000000DDH   DATA     BYTE      TK5MSH
LX51 LINKER/LOCATER V4.66.66.0                                                        12/27/2021  17:20:30  PAGE 9


*SFR* 000000DCH   DATA     BYTE      TK5MSL
*SFR* 000000F9H   DATA     BYTE      TKCFG
      02008102H   XDATA    BYTE      TKCKS
*SFR* 000000F8H   DATA     BYTE      TKCON
*SFR* 000000FBH   DATA     BYTE      TKIF
      0200805CH   XDATA    BYTE      TKMAXF
      0200805DH   XDATA    BYTE      TKMINF
*SFR* 000000FAH   DATA     BYTE      TKMTS
      02008103H   XDATA    BYTE      TKPWC
*SFR* 0000008AH   DATA     BYTE      TL0
*SFR* 0000008BH   DATA     BYTE      TL1
*SFR* 000000CCH   DATA     BYTE      TL2
      0200810AH   XDATA    BYTE      TLCKS
      0200810CH   XDATA    BYTE      TLCNTKH
      0200810BH   XDATA    BYTE      TLCNTKL
      0200810EH   XDATA    BYTE      TLCNTLH
      0200810DH   XDATA    BYTE      TLCNTLL
      02008110H   XDATA    BYTE      TLCOMS
      02008108H   XDATA    BYTE      TLCON
      02008107H   XDATA    BYTE      TLDAT0
      02008112H   XDATA    BYTE      TLDAT1
      0200810FH   XDATA    BYTE      TLDIV
      02008106H   XDATA    BYTE      TLEN0
      02008111H   XDATA    BYTE      TLEN1
      02008109H   XDATA    BYTE      TLFLG
*SFR* 000000D5H   DATA     BYTE      TMCON
*SFR* 00000089H   DATA     BYTE      TMOD
*SFR* 000000D6H   DATA     BYTE      TMSNU
*SFR* 00000088H.4 DATA     BIT       TR0
*SFR* 00000088H.6 DATA     BIT       TR1
*SFR* 000000C8H.6 DATA     BIT       TR2
*SFR* 000000C8H.2 DATA     BIT       UCKS
*SFR* 000000D8H   DATA     BYTE      UDCKS
*SFR* 000000A0H   DATA     BYTE      WDCON
*SFR* 000000A1H   DATA     BYTE      WDFLG
*SFR* 000000A3H   DATA     BYTE      WDVTHH
*SFR* 000000A2H   DATA     BYTE      WDVTHL



SYMBOL TABLE OF MODULE:  .\output\ca51f5 (DELAY)

      VALUE       REP       CLASS    TYPE      SYMBOL NAME
      ====================================================
      ---         MODULE    ---      ---       DELAY
      00000006H   SYMBOL    DATA     WORD      n
      00000005H   SYMBOL    DATA     BYTE      i

      ---         MODULE    ---      ---       USER_IO_CFG
      0100120AH   PUBLIC    CODE     ---       io_init
      00000080H   SFRSYM    DATA     BYTE      P0
      000000F8H   SFRSYM    DATA     BYTE      TKCON
      0000008EH   SFRSYM    DATA     BYTE      IDLST
      000000D5H   SFRSYM    DATA     BYTE      TMCON
      000000B0H   SFRSYM    DATA     BYTE      P3
      000000D0H.6 SFRSYM    DATA     BIT       AC
      000000B7H   SFRSYM    DATA     BYTE      PWMIF
      000000A8H.7 SFRSYM    DATA     BIT       EA
      000000C8H   SFRSYM    DATA     BIT       T2P0
      000000B9H   SFRSYM    DATA     BYTE      PWM0CON
      000000C8H.1 SFRSYM    DATA     BIT       T2P1
      000000BAH   SFRSYM    DATA     BYTE      PWM1CON
      000000C8H.4 SFRSYM    DATA     BIT       T2R0
      000000BBH   SFRSYM    DATA     BYTE      PWM2CON
      00000090H   SFRSYM    DATA     BYTE      PWMEN
LX51 LINKER/LOCATER V4.66.66.0                                                        12/27/2021  17:20:30  PAGE 10


      00000086H   SFRSYM    DATA     BYTE      PWCON
      000000C8H.5 SFRSYM    DATA     BIT       T2R1
      000000BCH   SFRSYM    DATA     BYTE      PWM3CON
      000000BDH   SFRSYM    DATA     BYTE      PWM4CON
      000000BEH   SFRSYM    DATA     BYTE      PWM5CON
      00000083H   SFRSYM    DATA     BYTE      DP0H
      000000A8H   SFRSYM    DATA     BYTE      IE
      00000085H   SFRSYM    DATA     BYTE      DP1H
      00000082H   SFRSYM    DATA     BYTE      DP0L
      000000CBH   SFRSYM    DATA     BYTE      T2CH
      000000C2H   SFRSYM    DATA     BYTE      I2CADM
      00000084H   SFRSYM    DATA     BYTE      DP1L
      000000C8H.3 SFRSYM    DATA     BIT       T2IE
      000000FAH   SFRSYM    DATA     BYTE      TKMTS
      000000CAH   SFRSYM    DATA     BYTE      T2CL
      000000C1H   SFRSYM    DATA     BYTE      I2CADR
      000000CFH   SFRSYM    DATA     BYTE      LEDWTMH
      000000D6H   SFRSYM    DATA     BYTE      TMSNU
      000000C6H   SFRSYM    DATA     BYTE      I2CFLG
      000000C4H   SFRSYM    DATA     BYTE      I2CDAT
      000000B8H   SFRSYM    DATA     BYTE      IP
      000000D0H.7 SFRSYM    DATA     BIT       CY
      000000D7H   SFRSYM    DATA     BYTE      LEDAT0
      000000CEH   SFRSYM    DATA     BYTE      LEDWTML
      000000F4H   SFRSYM    DATA     BYTE      ATK0CH
      000000C7H   SFRSYM    DATA     BYTE      LEDAT1
      000000F6H   SFRSYM    DATA     BYTE      ATK1CH
      000000DEH   SFRSYM    DATA     BYTE      AK0CON
      000000E9H   SFRSYM    DATA     BYTE      ATK2CH
      000000DFH   SFRSYM    DATA     BYTE      AK1CON
      000000EBH   SFRSYM    DATA     BYTE      ATK3CH
      000000C0H   SFRSYM    DATA     BYTE      I2CCON
      0000008FH   SFRSYM    DATA     BYTE      STPST
      000000F3H   SFRSYM    DATA     BYTE      ATK0CL
      000000EDH   SFRSYM    DATA     BYTE      ATK4CH
      000000F5H   SFRSYM    DATA     BYTE      ATK1CL
      000000EFH   SFRSYM    DATA     BYTE      ATK5CH
      000000F7H   SFRSYM    DATA     BYTE      ATK2CL
      00000081H   SFRSYM    DATA     BYTE      SP
      000000EAH   SFRSYM    DATA     BYTE      ATK3CL
      000000D0H.2 SFRSYM    DATA     BIT       OV
      000000ECH   SFRSYM    DATA     BYTE      ATK4CL
      000000D4H   SFRSYM    DATA     BYTE      EPIF
      000000EEH   SFRSYM    DATA     BYTE      ATK5CL
      000000D1H   SFRSYM    DATA     BYTE      EP0CON
      000000D2H   SFRSYM    DATA     BYTE      EP1CON
      000000C5H   SFRSYM    DATA     BYTE      I2CSTA
      000000D3H   SFRSYM    DATA     BYTE      EP2CON
      000000FCH   SFRSYM    DATA     BYTE      TK0CHS
      000000FBH   SFRSYM    DATA     BYTE      TKIF
      00000080H   SFRSYM    DATA     BIT       P00
      000000FDH   SFRSYM    DATA     BYTE      TK1CHS
      00000080H.1 SFRSYM    DATA     BIT       P01
      000000FEH   SFRSYM    DATA     BYTE      TK2CHS
      00000087H   SFRSYM    DATA     BYTE      PCON
      00000080H.2 SFRSYM    DATA     BIT       P02
      000000A8H.4 SFRSYM    DATA     BIT       INT2EN
      000000FFH   SFRSYM    DATA     BYTE      TK3CHS
      000000B0H   SFRSYM    DATA     BIT       P30
      00000080H.3 SFRSYM    DATA     BIT       P03
      000000A8H.5 SFRSYM    DATA     BIT       INT3EN
      000000F1H   SFRSYM    DATA     BYTE      TK4CHS
      000000B0H.1 SFRSYM    DATA     BIT       P31
      00000080H.4 SFRSYM    DATA     BIT       P04
      000000A8H.6 SFRSYM    DATA     BIT       INT4EN
LX51 LINKER/LOCATER V4.66.66.0                                                        12/27/2021  17:20:30  PAGE 11


      000000F2H   SFRSYM    DATA     BYTE      TK5CHS
      000000B0H.2 SFRSYM    DATA     BIT       P32
      00000080H.5 SFRSYM    DATA     BIT       P05
      00000089H   SFRSYM    DATA     BYTE      TMOD
      00000088H   SFRSYM    DATA     BYTE      TCON
      000000B0H.3 SFRSYM    DATA     BIT       P33
      00000080H.6 SFRSYM    DATA     BIT       P06
      000000B0H.4 SFRSYM    DATA     BIT       P34
      00000080H.7 SFRSYM    DATA     BIT       P07
      000000C8H.2 SFRSYM    DATA     BIT       UCKS
      000000B0H.5 SFRSYM    DATA     BIT       P35
      000000E2H   SFRSYM    DATA     BYTE      TK0MSH
      000000E4H   SFRSYM    DATA     BYTE      TK1MSH
      000000E6H   SFRSYM    DATA     BYTE      TK2MSH
      000000D9H   SFRSYM    DATA     BYTE      TK3MSH
      000000E1H   SFRSYM    DATA     BYTE      TK0MSL
      000000DBH   SFRSYM    DATA     BYTE      TK4MSH
      00000088H.1 SFRSYM    DATA     BIT       IE0
      000000E3H   SFRSYM    DATA     BYTE      TK1MSL
      000000DDH   SFRSYM    DATA     BYTE      TK5MSH
      00000088H.3 SFRSYM    DATA     BIT       IE1
      000000E5H   SFRSYM    DATA     BYTE      TK2MSL
      000000E7H   SFRSYM    DATA     BYTE      TK3MSL
      000000F0H   SFRSYM    DATA     BYTE      B
      000000DAH   SFRSYM    DATA     BYTE      TK4MSL
      000000DCH   SFRSYM    DATA     BYTE      TK5MSL
      000000E0H   SFRSYM    DATA     BYTE      ACC
      000000A8H.4 SFRSYM    DATA     BIT       ES0
      000000E8H   SFRSYM    DATA     BYTE      LVDCON
      000000A8H.1 SFRSYM    DATA     BIT       ET0
      000000A8H.3 SFRSYM    DATA     BIT       ET1
      00000088H.5 SFRSYM    DATA     BIT       TF0
      00000098H   SFRSYM    DATA     BIT       RI0
      00000088H.7 SFRSYM    DATA     BIT       TF1
      000000C8H.7 SFRSYM    DATA     BIT       TF2
      00000098H.2 SFRSYM    DATA     BIT       RB8
      0000008CH   SFRSYM    DATA     BYTE      TH0
      000000A8H   SFRSYM    DATA     BIT       EX0
      00000098H.1 SFRSYM    DATA     BIT       TI0
      00000088H   SFRSYM    DATA     BIT       IT0
      0000008DH   SFRSYM    DATA     BYTE      TH1
      000000A8H.2 SFRSYM    DATA     BIT       EX1
      00000098H.3 SFRSYM    DATA     BIT       TB8
      00000088H.2 SFRSYM    DATA     BIT       IT1
      000000CDH   SFRSYM    DATA     BYTE      TH2
      000000D0H   SFRSYM    DATA     BIT       P
      00000098H.7 SFRSYM    DATA     BIT       SM0
      0000008AH   SFRSYM    DATA     BYTE      TL0
      00000098H.6 SFRSYM    DATA     BIT       SM1
      0000008BH   SFRSYM    DATA     BYTE      TL1
      00000098H.5 SFRSYM    DATA     BIT       SM2
      000000CCH   SFRSYM    DATA     BYTE      TL2
      000000AAH   SFRSYM    DATA     BYTE      PWM0DIVH
      000000B8H.4 SFRSYM    DATA     BIT       PS0
      000000ACH   SFRSYM    DATA     BYTE      PWM1DIVH
      000000B8H.1 SFRSYM    DATA     BIT       PT0
      000000B8H.6 SFRSYM    DATA     BIT       PS1
      000000C3H   SFRSYM    DATA     BYTE      I2CCR
      000000AEH   SFRSYM    DATA     BYTE      PWM2DIVH
      000000B8H.3 SFRSYM    DATA     BIT       PT1
      000000D0H.3 SFRSYM    DATA     BIT       RS0
      000000A4H   SFRSYM    DATA     BYTE      PWM3DIVH
      000000B8H.5 SFRSYM    DATA     BIT       PT2
      00000088H.4 SFRSYM    DATA     BIT       TR0
      000000D0H.4 SFRSYM    DATA     BIT       RS1
LX51 LINKER/LOCATER V4.66.66.0                                                        12/27/2021  17:20:30  PAGE 12


      000000A9H   SFRSYM    DATA     BYTE      PWM0DIVL
      000000A6H   SFRSYM    DATA     BYTE      PWM4DIVH
      00000088H.6 SFRSYM    DATA     BIT       TR1
      000000ABH   SFRSYM    DATA     BYTE      PWM1DIVL
      000000A3H   SFRSYM    DATA     BYTE      WDVTHH
      0000009AH   SFRSYM    DATA     BYTE      PWM5DIVH
      000000C8H.6 SFRSYM    DATA     BIT       TR2
      000000B8H   SFRSYM    DATA     BIT       PX0
      000000ADH   SFRSYM    DATA     BYTE      PWM2DIVL
      000000B8H.2 SFRSYM    DATA     BIT       PX1
      000000AFH   SFRSYM    DATA     BYTE      PWM3DIVL
      000000A5H   SFRSYM    DATA     BYTE      PWM4DIVL
      000000A7H   SFRSYM    DATA     BYTE      PWM5DIVL
      000000A2H   SFRSYM    DATA     BYTE      WDVTHL
      0000009CH   SFRSYM    DATA     BYTE      PWM0DUTH
      0000009EH   SFRSYM    DATA     BYTE      PWM1DUTH
      00000091H   SFRSYM    DATA     BYTE      PWM2DUTH
      00000093H   SFRSYM    DATA     BYTE      PWM3DUTH
      0000009BH   SFRSYM    DATA     BYTE      PWM0DUTL
      00000095H   SFRSYM    DATA     BYTE      PWM4DUTH
      0000009DH   SFRSYM    DATA     BYTE      PWM1DUTL
      00000099H   SFRSYM    DATA     BYTE      S0BUF
      00000097H   SFRSYM    DATA     BYTE      PWM5DUTH
      0000009FH   SFRSYM    DATA     BYTE      PWM2DUTL
      00000092H   SFRSYM    DATA     BYTE      PWM3DUTL
      00000098H   SFRSYM    DATA     BYTE      S0CON
      00000094H   SFRSYM    DATA     BYTE      PWM4DUTL
      00000098H.4 SFRSYM    DATA     BIT       REN
      00000096H   SFRSYM    DATA     BYTE      PWM5DUTL
      000000D0H.1 SFRSYM    DATA     BIT       DPS
      000000C9H   SFRSYM    DATA     BYTE      T2MOD
      000000C8H   SFRSYM    DATA     BYTE      T2CON
      000000BFH   SFRSYM    DATA     BYTE      LEFLG
      000000F9H   SFRSYM    DATA     BYTE      TKCFG
      000000D0H.5 SFRSYM    DATA     BIT       F0
      000000A1H   SFRSYM    DATA     BYTE      WDFLG
      000000B1H   SFRSYM    DATA     BYTE      PWM0CKD
      000000B2H   SFRSYM    DATA     BYTE      PWM1CKD
      000000D0H   SFRSYM    DATA     BYTE      PSW
      000000B3H   SFRSYM    DATA     BYTE      PWM2CKD
      000000D8H   SFRSYM    DATA     BYTE      UDCKS
      000000B4H   SFRSYM    DATA     BYTE      PWM3CKD
      000000B5H   SFRSYM    DATA     BYTE      PWM4CKD
      000000A0H   SFRSYM    DATA     BYTE      WDCON
      000000B6H   SFRSYM    DATA     BYTE      PWM5CKD

      0100120AH   BLOCK     CODE     ---       LVL=0
      0100120AH   LINE      CODE     ---       #3
      0100120AH   LINE      CODE     ---       #4
      0100120AH   LINE      CODE     ---       #5
      01001210H   LINE      CODE     ---       #6
      01001216H   LINE      CODE     ---       #8
      0100121CH   LINE      CODE     ---       #9
      01001222H   LINE      CODE     ---       #11
      01001228H   LINE      CODE     ---       #12
      0100122EH   LINE      CODE     ---       #13
      01001230H   LINE      CODE     ---       #15
      01001236H   LINE      CODE     ---       #16
      0100123CH   LINE      CODE     ---       #18
      01001245H   LINE      CODE     ---       #19
      0100124EH   LINE      CODE     ---       #21
      01001252H   LINE      CODE     ---       #22
      01001256H   LINE      CODE     ---       #23
      0100125AH   LINE      CODE     ---       #24
      0100125FH   LINE      CODE     ---       #25
LX51 LINKER/LOCATER V4.66.66.0                                                        12/27/2021  17:20:30  PAGE 13


      01001263H   LINE      CODE     ---       #26
      01001266H   LINE      CODE     ---       #27
      0100126BH   LINE      CODE     ---       #28
      0100126EH   LINE      CODE     ---       #29
      01001270H   LINE      CODE     ---       #30
      ---         BLOCKEND  ---      ---       LVL=0

      ---         MODULE    ---      ---       TIMER0
      020000BDH   PUBLIC    PDATA    BYTE      F_1s
      020000BBH   PUBLIC    PDATA    WORD      T_1ms
      020000BAH   PUBLIC    PDATA    BYTE      F_1ms
      010012F7H   PUBLIC    CODE     ---       timer0_init
      0100096EH   PUBLIC    CODE     ---       TIMER0_ISR
      00000080H   SFRSYM    DATA     BYTE      P0
      000000F8H   SFRSYM    DATA     BYTE      TKCON
      0000008EH   SFRSYM    DATA     BYTE      IDLST
      000000D5H   SFRSYM    DATA     BYTE      TMCON
      000000B0H   SFRSYM    DATA     BYTE      P3
      000000D0H.6 SFRSYM    DATA     BIT       AC
      000000B7H   SFRSYM    DATA     BYTE      PWMIF
      000000A8H.7 SFRSYM    DATA     BIT       EA
      000000C8H   SFRSYM    DATA     BIT       T2P0
      000000B9H   SFRSYM    DATA     BYTE      PWM0CON
      000000C8H.1 SFRSYM    DATA     BIT       T2P1
      000000BAH   SFRSYM    DATA     BYTE      PWM1CON
      000000C8H.4 SFRSYM    DATA     BIT       T2R0
      000000BBH   SFRSYM    DATA     BYTE      PWM2CON
      00000090H   SFRSYM    DATA     BYTE      PWMEN
      00000086H   SFRSYM    DATA     BYTE      PWCON
      000000C8H.5 SFRSYM    DATA     BIT       T2R1
      000000BCH   SFRSYM    DATA     BYTE      PWM3CON
      000000BDH   SFRSYM    DATA     BYTE      PWM4CON
      000000BEH   SFRSYM    DATA     BYTE      PWM5CON
      00000083H   SFRSYM    DATA     BYTE      DP0H
      000000A8H   SFRSYM    DATA     BYTE      IE
      00000085H   SFRSYM    DATA     BYTE      DP1H
      00000082H   SFRSYM    DATA     BYTE      DP0L
      000000CBH   SFRSYM    DATA     BYTE      T2CH
      000000C2H   SFRSYM    DATA     BYTE      I2CADM
      00000084H   SFRSYM    DATA     BYTE      DP1L
      000000C8H.3 SFRSYM    DATA     BIT       T2IE
      000000FAH   SFRSYM    DATA     BYTE      TKMTS
      000000CAH   SFRSYM    DATA     BYTE      T2CL
      000000C1H   SFRSYM    DATA     BYTE      I2CADR
      000000CFH   SFRSYM    DATA     BYTE      LEDWTMH
      000000D6H   SFRSYM    DATA     BYTE      TMSNU
      000000C6H   SFRSYM    DATA     BYTE      I2CFLG
      000000C4H   SFRSYM    DATA     BYTE      I2CDAT
      000000B8H   SFRSYM    DATA     BYTE      IP
      000000D0H.7 SFRSYM    DATA     BIT       CY
      000000D7H   SFRSYM    DATA     BYTE      LEDAT0
      000000CEH   SFRSYM    DATA     BYTE      LEDWTML
      000000F4H   SFRSYM    DATA     BYTE      ATK0CH
      000000C7H   SFRSYM    DATA     BYTE      LEDAT1
      000000F6H   SFRSYM    DATA     BYTE      ATK1CH
      000000DEH   SFRSYM    DATA     BYTE      AK0CON
      000000E9H   SFRSYM    DATA     BYTE      ATK2CH
      000000DFH   SFRSYM    DATA     BYTE      AK1CON
      000000EBH   SFRSYM    DATA     BYTE      ATK3CH
      000000C0H   SFRSYM    DATA     BYTE      I2CCON
      0000008FH   SFRSYM    DATA     BYTE      STPST
      000000F3H   SFRSYM    DATA     BYTE      ATK0CL
      000000EDH   SFRSYM    DATA     BYTE      ATK4CH
      000000F5H   SFRSYM    DATA     BYTE      ATK1CL
      000000EFH   SFRSYM    DATA     BYTE      ATK5CH
LX51 LINKER/LOCATER V4.66.66.0                                                        12/27/2021  17:20:30  PAGE 14


      000000F7H   SFRSYM    DATA     BYTE      ATK2CL
      00000081H   SFRSYM    DATA     BYTE      SP
      000000EAH   SFRSYM    DATA     BYTE      ATK3CL
      000000D0H.2 SFRSYM    DATA     BIT       OV
      000000ECH   SFRSYM    DATA     BYTE      ATK4CL
      000000D4H   SFRSYM    DATA     BYTE      EPIF
      000000EEH   SFRSYM    DATA     BYTE      ATK5CL
      000000D1H   SFRSYM    DATA     BYTE      EP0CON
      000000D2H   SFRSYM    DATA     BYTE      EP1CON
      000000C5H   SFRSYM    DATA     BYTE      I2CSTA
      000000D3H   SFRSYM    DATA     BYTE      EP2CON
      000000FCH   SFRSYM    DATA     BYTE      TK0CHS
      000000FBH   SFRSYM    DATA     BYTE      TKIF
      00000080H   SFRSYM    DATA     BIT       P00
      000000FDH   SFRSYM    DATA     BYTE      TK1CHS
      00000080H.1 SFRSYM    DATA     BIT       P01
      000000FEH   SFRSYM    DATA     BYTE      TK2CHS
      00000087H   SFRSYM    DATA     BYTE      PCON
      00000080H.2 SFRSYM    DATA     BIT       P02
      000000A8H.4 SFRSYM    DATA     BIT       INT2EN
      000000FFH   SFRSYM    DATA     BYTE      TK3CHS
      000000B0H   SFRSYM    DATA     BIT       P30
      00000080H.3 SFRSYM    DATA     BIT       P03
      000000A8H.5 SFRSYM    DATA     BIT       INT3EN
      000000F1H   SFRSYM    DATA     BYTE      TK4CHS
      000000B0H.1 SFRSYM    DATA     BIT       P31
      00000080H.4 SFRSYM    DATA     BIT       P04
      000000A8H.6 SFRSYM    DATA     BIT       INT4EN
      000000F2H   SFRSYM    DATA     BYTE      TK5CHS
      000000B0H.2 SFRSYM    DATA     BIT       P32
      00000080H.5 SFRSYM    DATA     BIT       P05
      00000089H   SFRSYM    DATA     BYTE      TMOD
      00000088H   SFRSYM    DATA     BYTE      TCON
      000000B0H.3 SFRSYM    DATA     BIT       P33
      00000080H.6 SFRSYM    DATA     BIT       P06
      000000B0H.4 SFRSYM    DATA     BIT       P34
      00000080H.7 SFRSYM    DATA     BIT       P07
      000000C8H.2 SFRSYM    DATA     BIT       UCKS
      000000B0H.5 SFRSYM    DATA     BIT       P35
      000000E2H   SFRSYM    DATA     BYTE      TK0MSH
      000000E4H   SFRSYM    DATA     BYTE      TK1MSH
      000000E6H   SFRSYM    DATA     BYTE      TK2MSH
      000000D9H   SFRSYM    DATA     BYTE      TK3MSH
      000000E1H   SFRSYM    DATA     BYTE      TK0MSL
      000000DBH   SFRSYM    DATA     BYTE      TK4MSH
      00000088H.1 SFRSYM    DATA     BIT       IE0
      000000E3H   SFRSYM    DATA     BYTE      TK1MSL
      000000DDH   SFRSYM    DATA     BYTE      TK5MSH
      00000088H.3 SFRSYM    DATA     BIT       IE1
      000000E5H   SFRSYM    DATA     BYTE      TK2MSL
      000000E7H   SFRSYM    DATA     BYTE      TK3MSL
      000000F0H   SFRSYM    DATA     BYTE      B
      000000DAH   SFRSYM    DATA     BYTE      TK4MSL
      000000DCH   SFRSYM    DATA     BYTE      TK5MSL
      000000E0H   SFRSYM    DATA     BYTE      ACC
      000000A8H.4 SFRSYM    DATA     BIT       ES0
      000000E8H   SFRSYM    DATA     BYTE      LVDCON
      000000A8H.1 SFRSYM    DATA     BIT       ET0
      000000A8H.3 SFRSYM    DATA     BIT       ET1
      00000088H.5 SFRSYM    DATA     BIT       TF0
      00000098H   SFRSYM    DATA     BIT       RI0
      00000088H.7 SFRSYM    DATA     BIT       TF1
      000000C8H.7 SFRSYM    DATA     BIT       TF2
      00000098H.2 SFRSYM    DATA     BIT       RB8
      0000008CH   SFRSYM    DATA     BYTE      TH0
LX51 LINKER/LOCATER V4.66.66.0                                                        12/27/2021  17:20:30  PAGE 15


      000000A8H   SFRSYM    DATA     BIT       EX0
      00000098H.1 SFRSYM    DATA     BIT       TI0
      00000088H   SFRSYM    DATA     BIT       IT0
      0000008DH   SFRSYM    DATA     BYTE      TH1
      000000A8H.2 SFRSYM    DATA     BIT       EX1
      00000098H.3 SFRSYM    DATA     BIT       TB8
      00000088H.2 SFRSYM    DATA     BIT       IT1
      000000CDH   SFRSYM    DATA     BYTE      TH2
      000000D0H   SFRSYM    DATA     BIT       P
      00000098H.7 SFRSYM    DATA     BIT       SM0
      0000008AH   SFRSYM    DATA     BYTE      TL0
      00000098H.6 SFRSYM    DATA     BIT       SM1
      0000008BH   SFRSYM    DATA     BYTE      TL1
      00000098H.5 SFRSYM    DATA     BIT       SM2
      000000CCH   SFRSYM    DATA     BYTE      TL2
      000000AAH   SFRSYM    DATA     BYTE      PWM0DIVH
      000000B8H.4 SFRSYM    DATA     BIT       PS0
      000000ACH   SFRSYM    DATA     BYTE      PWM1DIVH
      000000B8H.1 SFRSYM    DATA     BIT       PT0
      000000B8H.6 SFRSYM    DATA     BIT       PS1
      000000C3H   SFRSYM    DATA     BYTE      I2CCR
      000000AEH   SFRSYM    DATA     BYTE      PWM2DIVH
      000000B8H.3 SFRSYM    DATA     BIT       PT1
      000000D0H.3 SFRSYM    DATA     BIT       RS0
      000000A4H   SFRSYM    DATA     BYTE      PWM3DIVH
      000000B8H.5 SFRSYM    DATA     BIT       PT2
      00000088H.4 SFRSYM    DATA     BIT       TR0
      000000D0H.4 SFRSYM    DATA     BIT       RS1
      000000A9H   SFRSYM    DATA     BYTE      PWM0DIVL
      000000A6H   SFRSYM    DATA     BYTE      PWM4DIVH
      00000088H.6 SFRSYM    DATA     BIT       TR1
      000000ABH   SFRSYM    DATA     BYTE      PWM1DIVL
      000000A3H   SFRSYM    DATA     BYTE      WDVTHH
      0000009AH   SFRSYM    DATA     BYTE      PWM5DIVH
      000000C8H.6 SFRSYM    DATA     BIT       TR2
      000000B8H   SFRSYM    DATA     BIT       PX0
      000000ADH   SFRSYM    DATA     BYTE      PWM2DIVL
      000000B8H.2 SFRSYM    DATA     BIT       PX1
      000000AFH   SFRSYM    DATA     BYTE      PWM3DIVL
      000000A5H   SFRSYM    DATA     BYTE      PWM4DIVL
      000000A7H   SFRSYM    DATA     BYTE      PWM5DIVL
      000000A2H   SFRSYM    DATA     BYTE      WDVTHL
      0000009CH   SFRSYM    DATA     BYTE      PWM0DUTH
      0000009EH   SFRSYM    DATA     BYTE      PWM1DUTH
      00000091H   SFRSYM    DATA     BYTE      PWM2DUTH
      00000093H   SFRSYM    DATA     BYTE      PWM3DUTH
      0000009BH   SFRSYM    DATA     BYTE      PWM0DUTL
      00000095H   SFRSYM    DATA     BYTE      PWM4DUTH
      0000009DH   SFRSYM    DATA     BYTE      PWM1DUTL
      00000099H   SFRSYM    DATA     BYTE      S0BUF
      00000097H   SFRSYM    DATA     BYTE      PWM5DUTH
      0000009FH   SFRSYM    DATA     BYTE      PWM2DUTL
      00000092H   SFRSYM    DATA     BYTE      PWM3DUTL
      00000098H   SFRSYM    DATA     BYTE      S0CON
      00000094H   SFRSYM    DATA     BYTE      PWM4DUTL
      00000098H.4 SFRSYM    DATA     BIT       REN
      00000096H   SFRSYM    DATA     BYTE      PWM5DUTL
      000000D0H.1 SFRSYM    DATA     BIT       DPS
      000000C9H   SFRSYM    DATA     BYTE      T2MOD
      000000C8H   SFRSYM    DATA     BYTE      T2CON
      000000BFH   SFRSYM    DATA     BYTE      LEFLG
      000000F9H   SFRSYM    DATA     BYTE      TKCFG
      000000D0H.5 SFRSYM    DATA     BIT       F0
      000000A1H   SFRSYM    DATA     BYTE      WDFLG
      000000B1H   SFRSYM    DATA     BYTE      PWM0CKD
LX51 LINKER/LOCATER V4.66.66.0                                                        12/27/2021  17:20:30  PAGE 16


      000000B2H   SFRSYM    DATA     BYTE      PWM1CKD
      000000D0H   SFRSYM    DATA     BYTE      PSW
      000000B3H   SFRSYM    DATA     BYTE      PWM2CKD
      000000D8H   SFRSYM    DATA     BYTE      UDCKS
      000000B4H   SFRSYM    DATA     BYTE      PWM3CKD
      000000B5H   SFRSYM    DATA     BYTE      PWM4CKD
      000000A0H   SFRSYM    DATA     BYTE      WDCON
      000000B6H   SFRSYM    DATA     BYTE      PWM5CKD

      0100096EH   BLOCK     CODE     ---       LVL=0
      0100098BH   BLOCK     CODE     NEAR LAB  LVL=1
      020000B0H   SYMBOL    PDATA    BYTE      F_IRRec_EN
      020000B1H   SYMBOL    PDATA    BYTE      IRKeyBitNum
      020000B2H   SYMBOL    PDATA    WORD      IRHighTime
      020000B4H   SYMBOL    PDATA    BYTE      IRLowTime
      020000B5H   SYMBOL    PDATA    DWORD     IRRecBuff
      020000B9H   SYMBOL    PDATA    BYTE      T_125us
      ---         BLOCKEND  ---      ---       LVL=1
      0100096EH   LINE      CODE     ---       #8
      0100098BH   LINE      CODE     ---       #22
      0100098EH   LINE      CODE     ---       #23
      01000991H   LINE      CODE     ---       #27
      01000996H   LINE      CODE     ---       #28
      0100099EH   LINE      CODE     ---       #29
      0100099EH   LINE      CODE     ---       #30
      0100099FH   LINE      CODE     ---       #32
      010009A2H   LINE      CODE     ---       #33
      010009ADH   LINE      CODE     ---       #34
      010009B7H   LINE      CODE     ---       #35
      010009B7H   LINE      CODE     ---       #36
      010009BBH   LINE      CODE     ---       #37
      010009BEH   LINE      CODE     ---       #38
      010009BEH   LINE      CODE     ---       #40
      010009D1H   LINE      CODE     ---       #41
      010009D1H   LINE      CODE     ---       #42
      010009F2H   LINE      CODE     ---       #43
      010009FFH   LINE      CODE     ---       #45
      01000A05H   LINE      CODE     ---       #46
      01000A07H   LINE      CODE     ---       #47
      01000A10H   LINE      CODE     ---       #48
      01000A10H   LINE      CODE     ---       #49
      01000A16H   LINE      CODE     ---       #50
      01000A20H   LINE      CODE     ---       #51
      01000A23H   LINE      CODE     ---       #52
      01000A23H   LINE      CODE     ---       #53
      01000A23H   LINE      CODE     ---       #55
      01000A28H   LINE      CODE     ---       #56
      01000A28H   LINE      CODE     ---       #57
      01000A2BH   LINE      CODE     ---       #58
      01000A2BH   LINE      CODE     ---       #59
      01000A37H   LINE      CODE     ---       #60
      01000A41H   LINE      CODE     ---       #61
      01000A41H   LINE      CODE     ---       #62
      01000A43H   LINE      CODE     ---       #64
      01000A49H   LINE      CODE     ---       #69
      01000A58H   LINE      CODE     ---       #70
      01000A58H   LINE      CODE     ---       #71
      01000A62H   LINE      CODE     ---       #72
      01000A6FH   LINE      CODE     ---       #73
      01000A6FH   LINE      CODE     ---       #74
      01000A75H   LINE      CODE     ---       #75
      01000A75H   LINE      CODE     ---       #76
      01000A7DH   LINE      CODE     ---       #77
      01000A81H   LINE      CODE     ---       #78
      01000A84H   LINE      CODE     ---       #79
LX51 LINKER/LOCATER V4.66.66.0                                                        12/27/2021  17:20:30  PAGE 17


      01000A84H   LINE      CODE     ---       #80
      01000A88H   LINE      CODE     ---       #81
      01000A88H   LINE      CODE     ---       #82
      01000A94H   LINE      CODE     ---       #83
      01000A94H   LINE      CODE     ---       #84
      01000A98H   LINE      CODE     ---       #85
      01000AA1H   LINE      CODE     ---       #86
      01000AA4H   LINE      CODE     ---       #88
      01000AA4H   LINE      CODE     ---       #90
      01000AB5H   LINE      CODE     ---       #91
      01000AB5H   LINE      CODE     ---       #92
      01000AB8H   LINE      CODE     ---       #93
      01000AC1H   LINE      CODE     ---       #94
      01000AC1H   LINE      CODE     ---       #95
      01000ACBH   LINE      CODE     ---       #96
      01000ACBH   LINE      CODE     ---       #97
      01000ACFH   LINE      CODE     ---       #98
      01000ACFH   LINE      CODE     ---       #99
      01000AE7H   LINE      CODE     ---       #100
      01000AE7H   LINE      CODE     ---       #101
      01000AECH   LINE      CODE     ---       #102
      01000AEFH   LINE      CODE     ---       #104
      01000AEFH   LINE      CODE     ---       #106
      01000AEFH   LINE      CODE     ---       #107
      01000AF2H   LINE      CODE     ---       #109
      01000AF2H   LINE      CODE     ---       #110
      01000AF2H   LINE      CODE     ---       #111
      01000AFCH   LINE      CODE     ---       #112
      01000AFCH   LINE      CODE     ---       #113
      01000B03H   LINE      CODE     ---       #114
      01000B06H   LINE      CODE     ---       #115
      01000B1BH   LINE      CODE     ---       #116
      01000B1BH   LINE      CODE     ---       #117
      01000B32H   LINE      CODE     ---       #118
      01000B32H   LINE      CODE     ---       #119
      01000B44H   LINE      CODE     ---       #120
      01000B44H   LINE      CODE     ---       #121
      01000B46H   LINE      CODE     ---       #122
      01000B5EH   LINE      CODE     ---       #123
      01000B5EH   LINE      CODE     ---       #124
      01000B7AH   LINE      CODE     ---       #125
      01000B80H   LINE      CODE     ---       #126
      01000B82H   LINE      CODE     ---       #128
      01000B82H   LINE      CODE     ---       #132
      01000B8AH   LINE      CODE     ---       #134
      01000B8AH   LINE      CODE     ---       #135
      01000B91H   LINE      CODE     ---       #136
      01000B91H   LINE      CODE     ---       #137
      01000BE2H   LINE      CODE     ---       #138
      01000BE2H   LINE      CODE     ---       #139
      01000BF6H   LINE      CODE     ---       #140
      01000C06H   LINE      CODE     ---       #174
      01000C06H   LINE      CODE     ---       #176
      01000C06H   LINE      CODE     ---       #177
      01000C08H   LINE      CODE     ---       #179
      01000C08H   LINE      CODE     ---       #180
      01000C08H   LINE      CODE     ---       #181
      01000C08H   LINE      CODE     ---       #182
      01000C0AH   LINE      CODE     ---       #184
      01000C10H   LINE      CODE     ---       #185
      01000C10H   LINE      CODE     ---       #187
      ---         BLOCKEND  ---      ---       LVL=0

      010012F7H   BLOCK     CODE     ---       LVL=0
      010012F7H   LINE      CODE     ---       #188
LX51 LINKER/LOCATER V4.66.66.0                                                        12/27/2021  17:20:30  PAGE 18


      010012F7H   LINE      CODE     ---       #189
      010012F7H   LINE      CODE     ---       #190
      010012FAH   LINE      CODE     ---       #191
      010012FDH   LINE      CODE     ---       #192
      01001300H   LINE      CODE     ---       #194
      01001302H   LINE      CODE     ---       #195
      01001304H   LINE      CODE     ---       #196
      01001306H   LINE      CODE     ---       #197
      ---         BLOCKEND  ---      ---       LVL=0

      ---         MODULE    ---      ---       TIMER1
      01000003H   PUBLIC    CODE     ---       TIMER1_ISR
      00000080H   SFRSYM    DATA     BYTE      P0
      000000F8H   SFRSYM    DATA     BYTE      TKCON
      0000008EH   SFRSYM    DATA     BYTE      IDLST
      000000D5H   SFRSYM    DATA     BYTE      TMCON
      000000B0H   SFRSYM    DATA     BYTE      P3
      000000D0H.6 SFRSYM    DATA     BIT       AC
      000000B7H   SFRSYM    DATA     BYTE      PWMIF
      000000A8H.7 SFRSYM    DATA     BIT       EA
      000000C8H   SFRSYM    DATA     BIT       T2P0
      000000B9H   SFRSYM    DATA     BYTE      PWM0CON
      000000C8H.1 SFRSYM    DATA     BIT       T2P1
      000000BAH   SFRSYM    DATA     BYTE      PWM1CON
      000000C8H.4 SFRSYM    DATA     BIT       T2R0
      000000BBH   SFRSYM    DATA     BYTE      PWM2CON
      00000090H   SFRSYM    DATA     BYTE      PWMEN
      00000086H   SFRSYM    DATA     BYTE      PWCON
      000000C8H.5 SFRSYM    DATA     BIT       T2R1
      000000BCH   SFRSYM    DATA     BYTE      PWM3CON
      000000BDH   SFRSYM    DATA     BYTE      PWM4CON
      000000BEH   SFRSYM    DATA     BYTE      PWM5CON
      00000083H   SFRSYM    DATA     BYTE      DP0H
      000000A8H   SFRSYM    DATA     BYTE      IE
      00000085H   SFRSYM    DATA     BYTE      DP1H
      00000082H   SFRSYM    DATA     BYTE      DP0L
      000000CBH   SFRSYM    DATA     BYTE      T2CH
      000000C2H   SFRSYM    DATA     BYTE      I2CADM
      00000084H   SFRSYM    DATA     BYTE      DP1L
      000000C8H.3 SFRSYM    DATA     BIT       T2IE
      000000FAH   SFRSYM    DATA     BYTE      TKMTS
      000000CAH   SFRSYM    DATA     BYTE      T2CL
      000000C1H   SFRSYM    DATA     BYTE      I2CADR
      000000CFH   SFRSYM    DATA     BYTE      LEDWTMH
      000000D6H   SFRSYM    DATA     BYTE      TMSNU
      000000C6H   SFRSYM    DATA     BYTE      I2CFLG
      000000C4H   SFRSYM    DATA     BYTE      I2CDAT
      000000B8H   SFRSYM    DATA     BYTE      IP
      000000D0H.7 SFRSYM    DATA     BIT       CY
      000000D7H   SFRSYM    DATA     BYTE      LEDAT0
      000000CEH   SFRSYM    DATA     BYTE      LEDWTML
      000000F4H   SFRSYM    DATA     BYTE      ATK0CH
      000000C7H   SFRSYM    DATA     BYTE      LEDAT1
      000000F6H   SFRSYM    DATA     BYTE      ATK1CH
      000000DEH   SFRSYM    DATA     BYTE      AK0CON
      000000E9H   SFRSYM    DATA     BYTE      ATK2CH
      000000DFH   SFRSYM    DATA     BYTE      AK1CON
      000000EBH   SFRSYM    DATA     BYTE      ATK3CH
      000000C0H   SFRSYM    DATA     BYTE      I2CCON
      0000008FH   SFRSYM    DATA     BYTE      STPST
      000000F3H   SFRSYM    DATA     BYTE      ATK0CL
      000000EDH   SFRSYM    DATA     BYTE      ATK4CH
      000000F5H   SFRSYM    DATA     BYTE      ATK1CL
      000000EFH   SFRSYM    DATA     BYTE      ATK5CH
      000000F7H   SFRSYM    DATA     BYTE      ATK2CL
LX51 LINKER/LOCATER V4.66.66.0                                                        12/27/2021  17:20:30  PAGE 19


      00000081H   SFRSYM    DATA     BYTE      SP
      000000EAH   SFRSYM    DATA     BYTE      ATK3CL
      000000D0H.2 SFRSYM    DATA     BIT       OV
      000000ECH   SFRSYM    DATA     BYTE      ATK4CL
      000000D4H   SFRSYM    DATA     BYTE      EPIF
      000000EEH   SFRSYM    DATA     BYTE      ATK5CL
      000000D1H   SFRSYM    DATA     BYTE      EP0CON
      000000D2H   SFRSYM    DATA     BYTE      EP1CON
      000000C5H   SFRSYM    DATA     BYTE      I2CSTA
      000000D3H   SFRSYM    DATA     BYTE      EP2CON
      000000FCH   SFRSYM    DATA     BYTE      TK0CHS
      000000FBH   SFRSYM    DATA     BYTE      TKIF
      00000080H   SFRSYM    DATA     BIT       P00
      000000FDH   SFRSYM    DATA     BYTE      TK1CHS
      00000080H.1 SFRSYM    DATA     BIT       P01
      000000FEH   SFRSYM    DATA     BYTE      TK2CHS
      00000087H   SFRSYM    DATA     BYTE      PCON
      00000080H.2 SFRSYM    DATA     BIT       P02
      000000A8H.4 SFRSYM    DATA     BIT       INT2EN
      000000FFH   SFRSYM    DATA     BYTE      TK3CHS
      000000B0H   SFRSYM    DATA     BIT       P30
      00000080H.3 SFRSYM    DATA     BIT       P03
      000000A8H.5 SFRSYM    DATA     BIT       INT3EN
      000000F1H   SFRSYM    DATA     BYTE      TK4CHS
      000000B0H.1 SFRSYM    DATA     BIT       P31
      00000080H.4 SFRSYM    DATA     BIT       P04
      000000A8H.6 SFRSYM    DATA     BIT       INT4EN
      000000F2H   SFRSYM    DATA     BYTE      TK5CHS
      000000B0H.2 SFRSYM    DATA     BIT       P32
      00000080H.5 SFRSYM    DATA     BIT       P05
      00000089H   SFRSYM    DATA     BYTE      TMOD
      00000088H   SFRSYM    DATA     BYTE      TCON
      000000B0H.3 SFRSYM    DATA     BIT       P33
      00000080H.6 SFRSYM    DATA     BIT       P06
      000000B0H.4 SFRSYM    DATA     BIT       P34
      00000080H.7 SFRSYM    DATA     BIT       P07
      000000C8H.2 SFRSYM    DATA     BIT       UCKS
      000000B0H.5 SFRSYM    DATA     BIT       P35
      000000E2H   SFRSYM    DATA     BYTE      TK0MSH
      000000E4H   SFRSYM    DATA     BYTE      TK1MSH
      000000E6H   SFRSYM    DATA     BYTE      TK2MSH
      000000D9H   SFRSYM    DATA     BYTE      TK3MSH
      000000E1H   SFRSYM    DATA     BYTE      TK0MSL
      000000DBH   SFRSYM    DATA     BYTE      TK4MSH
      00000088H.1 SFRSYM    DATA     BIT       IE0
      000000E3H   SFRSYM    DATA     BYTE      TK1MSL
      000000DDH   SFRSYM    DATA     BYTE      TK5MSH
      00000088H.3 SFRSYM    DATA     BIT       IE1
      000000E5H   SFRSYM    DATA     BYTE      TK2MSL
      000000E7H   SFRSYM    DATA     BYTE      TK3MSL
      000000F0H   SFRSYM    DATA     BYTE      B
      000000DAH   SFRSYM    DATA     BYTE      TK4MSL
      000000DCH   SFRSYM    DATA     BYTE      TK5MSL
      000000E0H   SFRSYM    DATA     BYTE      ACC
      000000A8H.4 SFRSYM    DATA     BIT       ES0
      000000E8H   SFRSYM    DATA     BYTE      LVDCON
      000000A8H.1 SFRSYM    DATA     BIT       ET0
      000000A8H.3 SFRSYM    DATA     BIT       ET1
      00000088H.5 SFRSYM    DATA     BIT       TF0
      00000098H   SFRSYM    DATA     BIT       RI0
      00000088H.7 SFRSYM    DATA     BIT       TF1
      000000C8H.7 SFRSYM    DATA     BIT       TF2
      00000098H.2 SFRSYM    DATA     BIT       RB8
      0000008CH   SFRSYM    DATA     BYTE      TH0
      000000A8H   SFRSYM    DATA     BIT       EX0
LX51 LINKER/LOCATER V4.66.66.0                                                        12/27/2021  17:20:30  PAGE 20


      00000098H.1 SFRSYM    DATA     BIT       TI0
      00000088H   SFRSYM    DATA     BIT       IT0
      0000008DH   SFRSYM    DATA     BYTE      TH1
      000000A8H.2 SFRSYM    DATA     BIT       EX1
      00000098H.3 SFRSYM    DATA     BIT       TB8
      00000088H.2 SFRSYM    DATA     BIT       IT1
      000000CDH   SFRSYM    DATA     BYTE      TH2
      000000D0H   SFRSYM    DATA     BIT       P
      00000098H.7 SFRSYM    DATA     BIT       SM0
      0000008AH   SFRSYM    DATA     BYTE      TL0
      00000098H.6 SFRSYM    DATA     BIT       SM1
      0000008BH   SFRSYM    DATA     BYTE      TL1
      00000098H.5 SFRSYM    DATA     BIT       SM2
      000000CCH   SFRSYM    DATA     BYTE      TL2
      000000AAH   SFRSYM    DATA     BYTE      PWM0DIVH
      000000B8H.4 SFRSYM    DATA     BIT       PS0
      000000ACH   SFRSYM    DATA     BYTE      PWM1DIVH
      000000B8H.1 SFRSYM    DATA     BIT       PT0
      000000B8H.6 SFRSYM    DATA     BIT       PS1
      000000C3H   SFRSYM    DATA     BYTE      I2CCR
      000000AEH   SFRSYM    DATA     BYTE      PWM2DIVH
      000000B8H.3 SFRSYM    DATA     BIT       PT1
      000000D0H.3 SFRSYM    DATA     BIT       RS0
      000000A4H   SFRSYM    DATA     BYTE      PWM3DIVH
      000000B8H.5 SFRSYM    DATA     BIT       PT2
      00000088H.4 SFRSYM    DATA     BIT       TR0
      000000D0H.4 SFRSYM    DATA     BIT       RS1
      000000A9H   SFRSYM    DATA     BYTE      PWM0DIVL
      000000A6H   SFRSYM    DATA     BYTE      PWM4DIVH
      00000088H.6 SFRSYM    DATA     BIT       TR1
      000000ABH   SFRSYM    DATA     BYTE      PWM1DIVL
      000000A3H   SFRSYM    DATA     BYTE      WDVTHH
      0000009AH   SFRSYM    DATA     BYTE      PWM5DIVH
      000000C8H.6 SFRSYM    DATA     BIT       TR2
      000000B8H   SFRSYM    DATA     BIT       PX0
      000000ADH   SFRSYM    DATA     BYTE      PWM2DIVL
      000000B8H.2 SFRSYM    DATA     BIT       PX1
      000000AFH   SFRSYM    DATA     BYTE      PWM3DIVL
      000000A5H   SFRSYM    DATA     BYTE      PWM4DIVL
      000000A7H   SFRSYM    DATA     BYTE      PWM5DIVL
      000000A2H   SFRSYM    DATA     BYTE      WDVTHL
      0000009CH   SFRSYM    DATA     BYTE      PWM0DUTH
      0000009EH   SFRSYM    DATA     BYTE      PWM1DUTH
      00000091H   SFRSYM    DATA     BYTE      PWM2DUTH
      00000093H   SFRSYM    DATA     BYTE      PWM3DUTH
      0000009BH   SFRSYM    DATA     BYTE      PWM0DUTL
      00000095H   SFRSYM    DATA     BYTE      PWM4DUTH
      0000009DH   SFRSYM    DATA     BYTE      PWM1DUTL
      00000099H   SFRSYM    DATA     BYTE      S0BUF
      00000097H   SFRSYM    DATA     BYTE      PWM5DUTH
      0000009FH   SFRSYM    DATA     BYTE      PWM2DUTL
      00000092H   SFRSYM    DATA     BYTE      PWM3DUTL
      00000098H   SFRSYM    DATA     BYTE      S0CON
      00000094H   SFRSYM    DATA     BYTE      PWM4DUTL
      00000098H.4 SFRSYM    DATA     BIT       REN
      00000096H   SFRSYM    DATA     BYTE      PWM5DUTL
      000000D0H.1 SFRSYM    DATA     BIT       DPS
      000000C9H   SFRSYM    DATA     BYTE      T2MOD
      000000C8H   SFRSYM    DATA     BYTE      T2CON
      000000BFH   SFRSYM    DATA     BYTE      LEFLG
      000000F9H   SFRSYM    DATA     BYTE      TKCFG
      000000D0H.5 SFRSYM    DATA     BIT       F0
      000000A1H   SFRSYM    DATA     BYTE      WDFLG
      000000B1H   SFRSYM    DATA     BYTE      PWM0CKD
      000000B2H   SFRSYM    DATA     BYTE      PWM1CKD
LX51 LINKER/LOCATER V4.66.66.0                                                        12/27/2021  17:20:30  PAGE 21


      000000D0H   SFRSYM    DATA     BYTE      PSW
      000000B3H   SFRSYM    DATA     BYTE      PWM2CKD
      000000D8H   SFRSYM    DATA     BYTE      UDCKS
      000000B4H   SFRSYM    DATA     BYTE      PWM3CKD
      000000B5H   SFRSYM    DATA     BYTE      PWM4CKD
      000000A0H   SFRSYM    DATA     BYTE      WDCON
      000000B6H   SFRSYM    DATA     BYTE      PWM5CKD

      01000003H   BLOCK     CODE     ---       LVL=0
      01000003H   LINE      CODE     ---       #6
      01000003H   LINE      CODE     ---       #8
      01000006H   LINE      CODE     ---       #9
      01000009H   LINE      CODE     ---       #11
      ---         BLOCKEND  ---      ---       LVL=0

      ---         MODULE    ---      ---       PWM
      010012C7H   PUBLIC    CODE     ---       pwm2_init
      00000080H   SFRSYM    DATA     BYTE      P0
      000000F8H   SFRSYM    DATA     BYTE      TKCON
      0000008EH   SFRSYM    DATA     BYTE      IDLST
      000000D5H   SFRSYM    DATA     BYTE      TMCON
      000000B0H   SFRSYM    DATA     BYTE      P3
      000000D0H.6 SFRSYM    DATA     BIT       AC
      000000B7H   SFRSYM    DATA     BYTE      PWMIF
      000000A8H.7 SFRSYM    DATA     BIT       EA
      000000C8H   SFRSYM    DATA     BIT       T2P0
      000000B9H   SFRSYM    DATA     BYTE      PWM0CON
      000000C8H.1 SFRSYM    DATA     BIT       T2P1
      000000BAH   SFRSYM    DATA     BYTE      PWM1CON
      000000C8H.4 SFRSYM    DATA     BIT       T2R0
      000000BBH   SFRSYM    DATA     BYTE      PWM2CON
      00000090H   SFRSYM    DATA     BYTE      PWMEN
      00000086H   SFRSYM    DATA     BYTE      PWCON
      000000C8H.5 SFRSYM    DATA     BIT       T2R1
      000000BCH   SFRSYM    DATA     BYTE      PWM3CON
      000000BDH   SFRSYM    DATA     BYTE      PWM4CON
      000000BEH   SFRSYM    DATA     BYTE      PWM5CON
      00000083H   SFRSYM    DATA     BYTE      DP0H
      000000A8H   SFRSYM    DATA     BYTE      IE
      00000085H   SFRSYM    DATA     BYTE      DP1H
      00000082H   SFRSYM    DATA     BYTE      DP0L
      000000CBH   SFRSYM    DATA     BYTE      T2CH
      000000C2H   SFRSYM    DATA     BYTE      I2CADM
      00000084H   SFRSYM    DATA     BYTE      DP1L
      000000C8H.3 SFRSYM    DATA     BIT       T2IE
      000000FAH   SFRSYM    DATA     BYTE      TKMTS
      000000CAH   SFRSYM    DATA     BYTE      T2CL
      000000C1H   SFRSYM    DATA     BYTE      I2CADR
      000000CFH   SFRSYM    DATA     BYTE      LEDWTMH
      000000D6H   SFRSYM    DATA     BYTE      TMSNU
      000000C6H   SFRSYM    DATA     BYTE      I2CFLG
      000000C4H   SFRSYM    DATA     BYTE      I2CDAT
      000000B8H   SFRSYM    DATA     BYTE      IP
      000000D0H.7 SFRSYM    DATA     BIT       CY
      000000D7H   SFRSYM    DATA     BYTE      LEDAT0
      000000CEH   SFRSYM    DATA     BYTE      LEDWTML
      000000F4H   SFRSYM    DATA     BYTE      ATK0CH
      000000C7H   SFRSYM    DATA     BYTE      LEDAT1
      000000F6H   SFRSYM    DATA     BYTE      ATK1CH
      000000DEH   SFRSYM    DATA     BYTE      AK0CON
      000000E9H   SFRSYM    DATA     BYTE      ATK2CH
      000000DFH   SFRSYM    DATA     BYTE      AK1CON
      000000EBH   SFRSYM    DATA     BYTE      ATK3CH
      000000C0H   SFRSYM    DATA     BYTE      I2CCON
      0000008FH   SFRSYM    DATA     BYTE      STPST
LX51 LINKER/LOCATER V4.66.66.0                                                        12/27/2021  17:20:30  PAGE 22


      000000F3H   SFRSYM    DATA     BYTE      ATK0CL
      000000EDH   SFRSYM    DATA     BYTE      ATK4CH
      000000F5H   SFRSYM    DATA     BYTE      ATK1CL
      000000EFH   SFRSYM    DATA     BYTE      ATK5CH
      000000F7H   SFRSYM    DATA     BYTE      ATK2CL
      00000081H   SFRSYM    DATA     BYTE      SP
      000000EAH   SFRSYM    DATA     BYTE      ATK3CL
      000000D0H.2 SFRSYM    DATA     BIT       OV
      000000ECH   SFRSYM    DATA     BYTE      ATK4CL
      000000D4H   SFRSYM    DATA     BYTE      EPIF
      000000EEH   SFRSYM    DATA     BYTE      ATK5CL
      000000D1H   SFRSYM    DATA     BYTE      EP0CON
      000000D2H   SFRSYM    DATA     BYTE      EP1CON
      000000C5H   SFRSYM    DATA     BYTE      I2CSTA
      000000D3H   SFRSYM    DATA     BYTE      EP2CON
      000000FCH   SFRSYM    DATA     BYTE      TK0CHS
      000000FBH   SFRSYM    DATA     BYTE      TKIF
      00000080H   SFRSYM    DATA     BIT       P00
      000000FDH   SFRSYM    DATA     BYTE      TK1CHS
      00000080H.1 SFRSYM    DATA     BIT       P01
      000000FEH   SFRSYM    DATA     BYTE      TK2CHS
      00000087H   SFRSYM    DATA     BYTE      PCON
      00000080H.2 SFRSYM    DATA     BIT       P02
      000000A8H.4 SFRSYM    DATA     BIT       INT2EN
      000000FFH   SFRSYM    DATA     BYTE      TK3CHS
      000000B0H   SFRSYM    DATA     BIT       P30
      00000080H.3 SFRSYM    DATA     BIT       P03
      000000A8H.5 SFRSYM    DATA     BIT       INT3EN
      000000F1H   SFRSYM    DATA     BYTE      TK4CHS
      000000B0H.1 SFRSYM    DATA     BIT       P31
      00000080H.4 SFRSYM    DATA     BIT       P04
      000000A8H.6 SFRSYM    DATA     BIT       INT4EN
      000000F2H   SFRSYM    DATA     BYTE      TK5CHS
      000000B0H.2 SFRSYM    DATA     BIT       P32
      00000080H.5 SFRSYM    DATA     BIT       P05
      00000089H   SFRSYM    DATA     BYTE      TMOD
      00000088H   SFRSYM    DATA     BYTE      TCON
      000000B0H.3 SFRSYM    DATA     BIT       P33
      00000080H.6 SFRSYM    DATA     BIT       P06
      000000B0H.4 SFRSYM    DATA     BIT       P34
      00000080H.7 SFRSYM    DATA     BIT       P07
      000000C8H.2 SFRSYM    DATA     BIT       UCKS
      000000B0H.5 SFRSYM    DATA     BIT       P35
      000000E2H   SFRSYM    DATA     BYTE      TK0MSH
      000000E4H   SFRSYM    DATA     BYTE      TK1MSH
      000000E6H   SFRSYM    DATA     BYTE      TK2MSH
      000000D9H   SFRSYM    DATA     BYTE      TK3MSH
      000000E1H   SFRSYM    DATA     BYTE      TK0MSL
      000000DBH   SFRSYM    DATA     BYTE      TK4MSH
      00000088H.1 SFRSYM    DATA     BIT       IE0
      000000E3H   SFRSYM    DATA     BYTE      TK1MSL
      000000DDH   SFRSYM    DATA     BYTE      TK5MSH
      00000088H.3 SFRSYM    DATA     BIT       IE1
      000000E5H   SFRSYM    DATA     BYTE      TK2MSL
      000000E7H   SFRSYM    DATA     BYTE      TK3MSL
      000000F0H   SFRSYM    DATA     BYTE      B
      000000DAH   SFRSYM    DATA     BYTE      TK4MSL
      000000DCH   SFRSYM    DATA     BYTE      TK5MSL
      000000E0H   SFRSYM    DATA     BYTE      ACC
      000000A8H.4 SFRSYM    DATA     BIT       ES0
      000000E8H   SFRSYM    DATA     BYTE      LVDCON
      000000A8H.1 SFRSYM    DATA     BIT       ET0
      000000A8H.3 SFRSYM    DATA     BIT       ET1
      00000088H.5 SFRSYM    DATA     BIT       TF0
      00000098H   SFRSYM    DATA     BIT       RI0
LX51 LINKER/LOCATER V4.66.66.0                                                        12/27/2021  17:20:30  PAGE 23


      00000088H.7 SFRSYM    DATA     BIT       TF1
      000000C8H.7 SFRSYM    DATA     BIT       TF2
      00000098H.2 SFRSYM    DATA     BIT       RB8
      0000008CH   SFRSYM    DATA     BYTE      TH0
      000000A8H   SFRSYM    DATA     BIT       EX0
      00000098H.1 SFRSYM    DATA     BIT       TI0
      00000088H   SFRSYM    DATA     BIT       IT0
      0000008DH   SFRSYM    DATA     BYTE      TH1
      000000A8H.2 SFRSYM    DATA     BIT       EX1
      00000098H.3 SFRSYM    DATA     BIT       TB8
      00000088H.2 SFRSYM    DATA     BIT       IT1
      000000CDH   SFRSYM    DATA     BYTE      TH2
      000000D0H   SFRSYM    DATA     BIT       P
      00000098H.7 SFRSYM    DATA     BIT       SM0
      0000008AH   SFRSYM    DATA     BYTE      TL0
      00000098H.6 SFRSYM    DATA     BIT       SM1
      0000008BH   SFRSYM    DATA     BYTE      TL1
      00000098H.5 SFRSYM    DATA     BIT       SM2
      000000CCH   SFRSYM    DATA     BYTE      TL2
      000000AAH   SFRSYM    DATA     BYTE      PWM0DIVH
      000000B8H.4 SFRSYM    DATA     BIT       PS0
      000000ACH   SFRSYM    DATA     BYTE      PWM1DIVH
      000000B8H.1 SFRSYM    DATA     BIT       PT0
      000000B8H.6 SFRSYM    DATA     BIT       PS1
      000000C3H   SFRSYM    DATA     BYTE      I2CCR
      000000AEH   SFRSYM    DATA     BYTE      PWM2DIVH
      000000B8H.3 SFRSYM    DATA     BIT       PT1
      000000D0H.3 SFRSYM    DATA     BIT       RS0
      000000A4H   SFRSYM    DATA     BYTE      PWM3DIVH
      000000B8H.5 SFRSYM    DATA     BIT       PT2
      00000088H.4 SFRSYM    DATA     BIT       TR0
      000000D0H.4 SFRSYM    DATA     BIT       RS1
      000000A9H   SFRSYM    DATA     BYTE      PWM0DIVL
      000000A6H   SFRSYM    DATA     BYTE      PWM4DIVH
      00000088H.6 SFRSYM    DATA     BIT       TR1
      000000ABH   SFRSYM    DATA     BYTE      PWM1DIVL
      000000A3H   SFRSYM    DATA     BYTE      WDVTHH
      0000009AH   SFRSYM    DATA     BYTE      PWM5DIVH
      000000C8H.6 SFRSYM    DATA     BIT       TR2
      000000B8H   SFRSYM    DATA     BIT       PX0
      000000ADH   SFRSYM    DATA     BYTE      PWM2DIVL
      000000B8H.2 SFRSYM    DATA     BIT       PX1
      000000AFH   SFRSYM    DATA     BYTE      PWM3DIVL
      000000A5H   SFRSYM    DATA     BYTE      PWM4DIVL
      000000A7H   SFRSYM    DATA     BYTE      PWM5DIVL
      000000A2H   SFRSYM    DATA     BYTE      WDVTHL
      0000009CH   SFRSYM    DATA     BYTE      PWM0DUTH
      0000009EH   SFRSYM    DATA     BYTE      PWM1DUTH
      00000091H   SFRSYM    DATA     BYTE      PWM2DUTH
      00000093H   SFRSYM    DATA     BYTE      PWM3DUTH
      0000009BH   SFRSYM    DATA     BYTE      PWM0DUTL
      00000095H   SFRSYM    DATA     BYTE      PWM4DUTH
      0000009DH   SFRSYM    DATA     BYTE      PWM1DUTL
      00000099H   SFRSYM    DATA     BYTE      S0BUF
      00000097H   SFRSYM    DATA     BYTE      PWM5DUTH
      0000009FH   SFRSYM    DATA     BYTE      PWM2DUTL
      00000092H   SFRSYM    DATA     BYTE      PWM3DUTL
      00000098H   SFRSYM    DATA     BYTE      S0CON
      00000094H   SFRSYM    DATA     BYTE      PWM4DUTL
      00000098H.4 SFRSYM    DATA     BIT       REN
      00000096H   SFRSYM    DATA     BYTE      PWM5DUTL
      000000D0H.1 SFRSYM    DATA     BIT       DPS
      000000C9H   SFRSYM    DATA     BYTE      T2MOD
      000000C8H   SFRSYM    DATA     BYTE      T2CON
      000000BFH   SFRSYM    DATA     BYTE      LEFLG
LX51 LINKER/LOCATER V4.66.66.0                                                        12/27/2021  17:20:30  PAGE 24


      000000F9H   SFRSYM    DATA     BYTE      TKCFG
      000000D0H.5 SFRSYM    DATA     BIT       F0
      000000A1H   SFRSYM    DATA     BYTE      WDFLG
      000000B1H   SFRSYM    DATA     BYTE      PWM0CKD
      000000B2H   SFRSYM    DATA     BYTE      PWM1CKD
      000000D0H   SFRSYM    DATA     BYTE      PSW
      000000B3H   SFRSYM    DATA     BYTE      PWM2CKD
      000000D8H   SFRSYM    DATA     BYTE      UDCKS
      000000B4H   SFRSYM    DATA     BYTE      PWM3CKD
      000000B5H   SFRSYM    DATA     BYTE      PWM4CKD
      000000A0H   SFRSYM    DATA     BYTE      WDCON
      000000B6H   SFRSYM    DATA     BYTE      PWM5CKD

      010012C7H   BLOCK     CODE     ---       LVL=0
      010012C7H   LINE      CODE     ---       #5
      010012C7H   LINE      CODE     ---       #6
      010012C7H   LINE      CODE     ---       #7
      010012CDH   LINE      CODE     ---       #8
      010012D4H   LINE      CODE     ---       #9
      010012D7H   LINE      CODE     ---       #10
      010012DAH   LINE      CODE     ---       #11
      010012DCH   LINE      CODE     ---       #12
      010012DFH   LINE      CODE     ---       #13
      010012E3H   LINE      CODE     ---       #14
      010012E9H   LINE      CODE     ---       #15
      010012ECH   LINE      CODE     ---       #17
      010012EFH   LINE      CODE     ---       #18
      010012F1H   LINE      CODE     ---       #19
      010012F3H   LINE      CODE     ---       #20
      010012F6H   LINE      CODE     ---       #21
      ---         BLOCKEND  ---      ---       LVL=0

      ---         MODULE    ---      ---       MAIN
      02008007H   PUBLIC    XDATA    BYTE      P07F
      0200801CH   PUBLIC    XDATA    BYTE      P34F
      02008006H   PUBLIC    XDATA    BYTE      P06F
      0200801BH   PUBLIC    XDATA    BYTE      P33F
      02008005H   PUBLIC    XDATA    BYTE      P05F
      0200801AH   PUBLIC    XDATA    BYTE      P32F
      0200813DH   PUBLIC    XDATA    BYTE      P35C
      02008004H   PUBLIC    XDATA    BYTE      P04F
      02008019H   PUBLIC    XDATA    BYTE      P31F
      02008109H   PUBLIC    XDATA    BYTE      TLFLG
      02008127H   PUBLIC    XDATA    BYTE      P07C
      0200813CH   PUBLIC    XDATA    BYTE      P34C
      02008003H   PUBLIC    XDATA    BYTE      P03F
      02008018H   PUBLIC    XDATA    BYTE      P30F
      02008126H   PUBLIC    XDATA    BYTE      P06C
      0200813BH   PUBLIC    XDATA    BYTE      P33C
      02008002H   PUBLIC    XDATA    BYTE      P02F
      02008125H   PUBLIC    XDATA    BYTE      P05C
      0200813AH   PUBLIC    XDATA    BYTE      P32C
      02008001H   PUBLIC    XDATA    BYTE      P01F
      02008124H   PUBLIC    XDATA    BYTE      P04C
      02008139H   PUBLIC    XDATA    BYTE      P31C
      02008000H   PUBLIC    XDATA    BYTE      P00F
      02008123H   PUBLIC    XDATA    BYTE      P03C
      02008138H   PUBLIC    XDATA    BYTE      P30C
      02008122H   PUBLIC    XDATA    BYTE      P02C
      02008121H   PUBLIC    XDATA    BYTE      P01C
      02008120H   PUBLIC    XDATA    BYTE      P00C
      0200FC00H   PUBLIC    XDATA    BYTE      MECON
      0200FC02H   PUBLIC    XDATA    BYTE      FSDAT
      02008031H   PUBLIC    XDATA    BYTE      CKDIV
      02008030H   PUBLIC    XDATA    BYTE      CKCON
LX51 LINKER/LOCATER V4.66.66.0                                                        12/27/2021  17:20:30  PAGE 25


      0200FC01H   PUBLIC    XDATA    BYTE      FSCMD
      0200FC04H   PUBLIC    XDATA    BYTE      PADRD
      02008111H   PUBLIC    XDATA    BYTE      TLEN1
      02008106H   PUBLIC    XDATA    BYTE      TLEN0
      02008032H   PUBLIC    XDATA    BYTE      IHCFG
      02008110H   PUBLIC    XDATA    BYTE      TLCOMS
      0200805CH   PUBLIC    XDATA    BYTE      TKMAXF
      02008060H   PUBLIC    XDATA    BYTE      LEDUTL
      0200805DH   PUBLIC    XDATA    BYTE      TKMINF
      02008061H   PUBLIC    XDATA    BYTE      LEDUTH
      0200FC05H   PUBLIC    XDATA    BYTE      PTSL
      0200FC06H   PUBLIC    XDATA    BYTE      PTSH
      02008105H   PUBLIC    XDATA    BYTE      LVDCFG
      02008033H   PUBLIC    XDATA    BYTE      ILCFGL
      0200805AH   PUBLIC    XDATA    BYTE      ATK5NL
      02008058H   PUBLIC    XDATA    BYTE      ATK4NL
      02008034H   PUBLIC    XDATA    BYTE      ILCFGH
      02008056H   PUBLIC    XDATA    BYTE      ATK3NL
      02008054H   PUBLIC    XDATA    BYTE      ATK2NL
      02008052H   PUBLIC    XDATA    BYTE      ATK1NL
      0200805BH   PUBLIC    XDATA    BYTE      ATK5NH
      02008050H   PUBLIC    XDATA    BYTE      ATK0NL
      02008059H   PUBLIC    XDATA    BYTE      ATK4NH
      02008112H   PUBLIC    XDATA    BYTE      TLDAT1
      02008057H   PUBLIC    XDATA    BYTE      ATK3NH
      02008101H   PUBLIC    XDATA    BYTE      I2CIOS
      02008107H   PUBLIC    XDATA    BYTE      TLDAT0
      02008055H   PUBLIC    XDATA    BYTE      ATK2NH
      0200FC03H   PUBLIC    XDATA    BYTE      LOCK
      02008053H   PUBLIC    XDATA    BYTE      ATK1NH
      02008051H   PUBLIC    XDATA    BYTE      ATK0NH
      0200810DH   PUBLIC    XDATA    BYTE      TLCNTLL
      0200810BH   PUBLIC    XDATA    BYTE      TLCNTKL
      0200810EH   PUBLIC    XDATA    BYTE      TLCNTLH
      0200810CH   PUBLIC    XDATA    BYTE      TLCNTKH
      02000093H   PUBLIC    PDATA    ---       light
      02000003H   PUBLIC    PDATA    ---       LED_DAT
      0200FC0DH   PUBLIC    XDATA    BYTE      MEMPTEC
      02008100H   PUBLIC    XDATA    BYTE      SPMAX
      02008103H   PUBLIC    XDATA    BYTE      TKPWC
      0200810FH   PUBLIC    XDATA    BYTE      TLDIV
      0200810AH   PUBLIC    XDATA    BYTE      TLCKS
      02008102H   PUBLIC    XDATA    BYTE      TKCKS
      02008108H   PUBLIC    XDATA    BYTE      TLCON
      0200801DH   PUBLIC    XDATA    BYTE      P35F
      01000E1EH   PUBLIC    CODE     ---       send_led_data
      0100001EH   PUBLIC    CODE     ---       led_rgb_refreash
      01001193H   PUBLIC    CODE     ---       main
      00000080H   SFRSYM    DATA     BYTE      P0
      000000F8H   SFRSYM    DATA     BYTE      TKCON
      0000008EH   SFRSYM    DATA     BYTE      IDLST
      000000D5H   SFRSYM    DATA     BYTE      TMCON
      000000B0H   SFRSYM    DATA     BYTE      P3
      000000D0H.6 SFRSYM    DATA     BIT       AC
      000000B7H   SFRSYM    DATA     BYTE      PWMIF
      000000A8H.7 SFRSYM    DATA     BIT       EA
      000000C8H   SFRSYM    DATA     BIT       T2P0
      000000B9H   SFRSYM    DATA     BYTE      PWM0CON
      000000C8H.1 SFRSYM    DATA     BIT       T2P1
      000000BAH   SFRSYM    DATA     BYTE      PWM1CON
      000000C8H.4 SFRSYM    DATA     BIT       T2R0
      000000BBH   SFRSYM    DATA     BYTE      PWM2CON
      00000090H   SFRSYM    DATA     BYTE      PWMEN
      00000086H   SFRSYM    DATA     BYTE      PWCON
      000000C8H.5 SFRSYM    DATA     BIT       T2R1
LX51 LINKER/LOCATER V4.66.66.0                                                        12/27/2021  17:20:30  PAGE 26


      000000BCH   SFRSYM    DATA     BYTE      PWM3CON
      000000BDH   SFRSYM    DATA     BYTE      PWM4CON
      000000BEH   SFRSYM    DATA     BYTE      PWM5CON
      00000083H   SFRSYM    DATA     BYTE      DP0H
      000000A8H   SFRSYM    DATA     BYTE      IE
      00000085H   SFRSYM    DATA     BYTE      DP1H
      00000082H   SFRSYM    DATA     BYTE      DP0L
      000000CBH   SFRSYM    DATA     BYTE      T2CH
      000000C2H   SFRSYM    DATA     BYTE      I2CADM
      00000084H   SFRSYM    DATA     BYTE      DP1L
      000000C8H.3 SFRSYM    DATA     BIT       T2IE
      000000FAH   SFRSYM    DATA     BYTE      TKMTS
      000000CAH   SFRSYM    DATA     BYTE      T2CL
      000000C1H   SFRSYM    DATA     BYTE      I2CADR
      000000CFH   SFRSYM    DATA     BYTE      LEDWTMH
      000000D6H   SFRSYM    DATA     BYTE      TMSNU
      000000C6H   SFRSYM    DATA     BYTE      I2CFLG
      000000C4H   SFRSYM    DATA     BYTE      I2CDAT
      000000B8H   SFRSYM    DATA     BYTE      IP
      000000D0H.7 SFRSYM    DATA     BIT       CY
      000000D7H   SFRSYM    DATA     BYTE      LEDAT0
      000000CEH   SFRSYM    DATA     BYTE      LEDWTML
      000000F4H   SFRSYM    DATA     BYTE      ATK0CH
      000000C7H   SFRSYM    DATA     BYTE      LEDAT1
      000000F6H   SFRSYM    DATA     BYTE      ATK1CH
      000000DEH   SFRSYM    DATA     BYTE      AK0CON
      000000E9H   SFRSYM    DATA     BYTE      ATK2CH
      000000DFH   SFRSYM    DATA     BYTE      AK1CON
      000000EBH   SFRSYM    DATA     BYTE      ATK3CH
      000000C0H   SFRSYM    DATA     BYTE      I2CCON
      0000008FH   SFRSYM    DATA     BYTE      STPST
      000000F3H   SFRSYM    DATA     BYTE      ATK0CL
      000000EDH   SFRSYM    DATA     BYTE      ATK4CH
      000000F5H   SFRSYM    DATA     BYTE      ATK1CL
      000000EFH   SFRSYM    DATA     BYTE      ATK5CH
      000000F7H   SFRSYM    DATA     BYTE      ATK2CL
      00000081H   SFRSYM    DATA     BYTE      SP
      000000EAH   SFRSYM    DATA     BYTE      ATK3CL
      000000D0H.2 SFRSYM    DATA     BIT       OV
      000000ECH   SFRSYM    DATA     BYTE      ATK4CL
      000000D4H   SFRSYM    DATA     BYTE      EPIF
      000000EEH   SFRSYM    DATA     BYTE      ATK5CL
      000000D1H   SFRSYM    DATA     BYTE      EP0CON
      000000D2H   SFRSYM    DATA     BYTE      EP1CON
      000000C5H   SFRSYM    DATA     BYTE      I2CSTA
      000000D3H   SFRSYM    DATA     BYTE      EP2CON
      000000FCH   SFRSYM    DATA     BYTE      TK0CHS
      000000FBH   SFRSYM    DATA     BYTE      TKIF
      00000080H   SFRSYM    DATA     BIT       P00
      000000FDH   SFRSYM    DATA     BYTE      TK1CHS
      00000080H.1 SFRSYM    DATA     BIT       P01
      000000FEH   SFRSYM    DATA     BYTE      TK2CHS
      00000087H   SFRSYM    DATA     BYTE      PCON
      00000080H.2 SFRSYM    DATA     BIT       P02
      000000A8H.4 SFRSYM    DATA     BIT       INT2EN
      000000FFH   SFRSYM    DATA     BYTE      TK3CHS
      000000B0H   SFRSYM    DATA     BIT       P30
      00000080H.3 SFRSYM    DATA     BIT       P03
      000000A8H.5 SFRSYM    DATA     BIT       INT3EN
      000000F1H   SFRSYM    DATA     BYTE      TK4CHS
      000000B0H.1 SFRSYM    DATA     BIT       P31
      00000080H.4 SFRSYM    DATA     BIT       P04
      000000A8H.6 SFRSYM    DATA     BIT       INT4EN
      000000F2H   SFRSYM    DATA     BYTE      TK5CHS
      000000B0H.2 SFRSYM    DATA     BIT       P32
LX51 LINKER/LOCATER V4.66.66.0                                                        12/27/2021  17:20:30  PAGE 27


      00000080H.5 SFRSYM    DATA     BIT       P05
      00000089H   SFRSYM    DATA     BYTE      TMOD
      00000088H   SFRSYM    DATA     BYTE      TCON
      000000B0H.3 SFRSYM    DATA     BIT       P33
      00000080H.6 SFRSYM    DATA     BIT       P06
      000000B0H.4 SFRSYM    DATA     BIT       P34
      00000080H.7 SFRSYM    DATA     BIT       P07
      000000C8H.2 SFRSYM    DATA     BIT       UCKS
      000000B0H.5 SFRSYM    DATA     BIT       P35
      000000E2H   SFRSYM    DATA     BYTE      TK0MSH
      000000E4H   SFRSYM    DATA     BYTE      TK1MSH
      000000E6H   SFRSYM    DATA     BYTE      TK2MSH
      000000D9H   SFRSYM    DATA     BYTE      TK3MSH
      000000E1H   SFRSYM    DATA     BYTE      TK0MSL
      000000DBH   SFRSYM    DATA     BYTE      TK4MSH
      00000088H.1 SFRSYM    DATA     BIT       IE0
      000000E3H   SFRSYM    DATA     BYTE      TK1MSL
      000000DDH   SFRSYM    DATA     BYTE      TK5MSH
      00000088H.3 SFRSYM    DATA     BIT       IE1
      000000E5H   SFRSYM    DATA     BYTE      TK2MSL
      000000E7H   SFRSYM    DATA     BYTE      TK3MSL
      000000F0H   SFRSYM    DATA     BYTE      B
      000000DAH   SFRSYM    DATA     BYTE      TK4MSL
      000000DCH   SFRSYM    DATA     BYTE      TK5MSL
      000000E0H   SFRSYM    DATA     BYTE      ACC
      000000A8H.4 SFRSYM    DATA     BIT       ES0
      000000E8H   SFRSYM    DATA     BYTE      LVDCON
      000000A8H.1 SFRSYM    DATA     BIT       ET0
      000000A8H.3 SFRSYM    DATA     BIT       ET1
      00000088H.5 SFRSYM    DATA     BIT       TF0
      00000098H   SFRSYM    DATA     BIT       RI0
      00000088H.7 SFRSYM    DATA     BIT       TF1
      000000C8H.7 SFRSYM    DATA     BIT       TF2
      00000098H.2 SFRSYM    DATA     BIT       RB8
      0000008CH   SFRSYM    DATA     BYTE      TH0
      000000A8H   SFRSYM    DATA     BIT       EX0
      00000098H.1 SFRSYM    DATA     BIT       TI0
      00000088H   SFRSYM    DATA     BIT       IT0
      0000008DH   SFRSYM    DATA     BYTE      TH1
      000000A8H.2 SFRSYM    DATA     BIT       EX1
      00000098H.3 SFRSYM    DATA     BIT       TB8
      00000088H.2 SFRSYM    DATA     BIT       IT1
      000000CDH   SFRSYM    DATA     BYTE      TH2
      000000D0H   SFRSYM    DATA     BIT       P
      00000098H.7 SFRSYM    DATA     BIT       SM0
      0000008AH   SFRSYM    DATA     BYTE      TL0
      00000098H.6 SFRSYM    DATA     BIT       SM1
      0000008BH   SFRSYM    DATA     BYTE      TL1
      00000098H.5 SFRSYM    DATA     BIT       SM2
      000000CCH   SFRSYM    DATA     BYTE      TL2
      000000AAH   SFRSYM    DATA     BYTE      PWM0DIVH
      000000B8H.4 SFRSYM    DATA     BIT       PS0
      000000ACH   SFRSYM    DATA     BYTE      PWM1DIVH
      000000B8H.1 SFRSYM    DATA     BIT       PT0
      000000B8H.6 SFRSYM    DATA     BIT       PS1
      000000C3H   SFRSYM    DATA     BYTE      I2CCR
      000000AEH   SFRSYM    DATA     BYTE      PWM2DIVH
      000000B8H.3 SFRSYM    DATA     BIT       PT1
      000000D0H.3 SFRSYM    DATA     BIT       RS0
      000000A4H   SFRSYM    DATA     BYTE      PWM3DIVH
      000000B8H.5 SFRSYM    DATA     BIT       PT2
      00000088H.4 SFRSYM    DATA     BIT       TR0
      000000D0H.4 SFRSYM    DATA     BIT       RS1
      000000A9H   SFRSYM    DATA     BYTE      PWM0DIVL
      000000A6H   SFRSYM    DATA     BYTE      PWM4DIVH
LX51 LINKER/LOCATER V4.66.66.0                                                        12/27/2021  17:20:30  PAGE 28


      00000088H.6 SFRSYM    DATA     BIT       TR1
      000000ABH   SFRSYM    DATA     BYTE      PWM1DIVL
      000000A3H   SFRSYM    DATA     BYTE      WDVTHH
      0000009AH   SFRSYM    DATA     BYTE      PWM5DIVH
      000000C8H.6 SFRSYM    DATA     BIT       TR2
      000000B8H   SFRSYM    DATA     BIT       PX0
      000000ADH   SFRSYM    DATA     BYTE      PWM2DIVL
      000000B8H.2 SFRSYM    DATA     BIT       PX1
      000000AFH   SFRSYM    DATA     BYTE      PWM3DIVL
      000000A5H   SFRSYM    DATA     BYTE      PWM4DIVL
      000000A7H   SFRSYM    DATA     BYTE      PWM5DIVL
      000000A2H   SFRSYM    DATA     BYTE      WDVTHL
      0000009CH   SFRSYM    DATA     BYTE      PWM0DUTH
      0000009EH   SFRSYM    DATA     BYTE      PWM1DUTH
      00000091H   SFRSYM    DATA     BYTE      PWM2DUTH
      00000093H   SFRSYM    DATA     BYTE      PWM3DUTH
      0000009BH   SFRSYM    DATA     BYTE      PWM0DUTL
      00000095H   SFRSYM    DATA     BYTE      PWM4DUTH
      0000009DH   SFRSYM    DATA     BYTE      PWM1DUTL
      00000099H   SFRSYM    DATA     BYTE      S0BUF
      00000097H   SFRSYM    DATA     BYTE      PWM5DUTH
      0000009FH   SFRSYM    DATA     BYTE      PWM2DUTL
      00000092H   SFRSYM    DATA     BYTE      PWM3DUTL
      00000098H   SFRSYM    DATA     BYTE      S0CON
      00000094H   SFRSYM    DATA     BYTE      PWM4DUTL
      00000098H.4 SFRSYM    DATA     BIT       REN
      00000096H   SFRSYM    DATA     BYTE      PWM5DUTL
      000000D0H.1 SFRSYM    DATA     BIT       DPS
      000000C9H   SFRSYM    DATA     BYTE      T2MOD
      000000C8H   SFRSYM    DATA     BYTE      T2CON
      000000BFH   SFRSYM    DATA     BYTE      LEFLG
      000000F9H   SFRSYM    DATA     BYTE      TKCFG
      000000D0H.5 SFRSYM    DATA     BIT       F0
      000000A1H   SFRSYM    DATA     BYTE      WDFLG
      000000B1H   SFRSYM    DATA     BYTE      PWM0CKD
      000000B2H   SFRSYM    DATA     BYTE      PWM1CKD
      000000D0H   SFRSYM    DATA     BYTE      PSW
      000000B3H   SFRSYM    DATA     BYTE      PWM2CKD
      000000D8H   SFRSYM    DATA     BYTE      UDCKS
      000000B4H   SFRSYM    DATA     BYTE      PWM3CKD
      000000B5H   SFRSYM    DATA     BYTE      PWM4CKD
      000000A0H   SFRSYM    DATA     BYTE      WDCON
      000000B6H   SFRSYM    DATA     BYTE      PWM5CKD
      0100000EH   SYMBOL    CONST    ---       _?ix1000

      01001193H   BLOCK     CODE     ---       LVL=0
      01001193H   LINE      CODE     ---       #20
      01001193H   LINE      CODE     ---       #21
      01001193H   LINE      CODE     ---       #22
      01001196H   LINE      CODE     ---       #23
      01001199H   LINE      CODE     ---       #24
      0100119CH   LINE      CODE     ---       #30
      0100119EH   LINE      CODE     ---       #36
      010011A2H   LINE      CODE     ---       #37
      010011A5H   LINE      CODE     ---       #38
      010011AAH   LINE      CODE     ---       #40
      010011AAH   LINE      CODE     ---       #41
      010011AAH   LINE      CODE     ---       #42
      010011AFH   LINE      CODE     ---       #43
      010011AFH   LINE      CODE     ---       #44
      010011B1H   LINE      CODE     ---       #45
      010011B4H   LINE      CODE     ---       #46
      010011E0H   LINE      CODE     ---       #47
      010011E0H   LINE      CODE     ---       #57
      010011E3H   LINE      CODE     ---       #58
LX51 LINKER/LOCATER V4.66.66.0                                                        12/27/2021  17:20:30  PAGE 29


      010011E5H   LINE      CODE     ---       #60
      010011E9H   LINE      CODE     ---       #61
      010011FBH   LINE      CODE     ---       #62
      010011FBH   LINE      CODE     ---       #63
      010011FEH   LINE      CODE     ---       #64
      01001201H   LINE      CODE     ---       #65
      01001201H   LINE      CODE     ---       #66
      01001201H   LINE      CODE     ---       #67
      01001206H   LINE      CODE     ---       #68
      01001206H   LINE      CODE     ---       #69
      01001208H   LINE      CODE     ---       #73
      01001208H   LINE      CODE     ---       #74
      ---         BLOCKEND  ---      ---       LVL=0

      0100001EH   BLOCK     CODE     ---       LVL=0
      0100001EH   BLOCK     CODE     NEAR LAB  LVL=1
      02000000H   SYMBOL    PDATA    WORD      temp_rgb
      02000002H   SYMBOL    PDATA    BYTE      F_huXi
      00000003H   SYMBOL    DATA     BYTE      led_index
      00000002H   SYMBOL    DATA     BYTE      led_on_num
      020000C0H   SYMBOL    PDATA    BYTE      gap
      020000C1H   SYMBOL    PDATA    BYTE      num
      ---         BLOCKEND  ---      ---       LVL=1
      0100001EH   LINE      CODE     ---       #78
      0100001EH   LINE      CODE     ---       #79
      0100001EH   LINE      CODE     ---       #85
      01000023H   LINE      CODE     ---       #86
      01000023H   LINE      CODE     ---       #87
      01000024H   LINE      CODE     ---       #88
      01000024H   LINE      CODE     ---       #89
      01000031H   LINE      CODE     ---       #90
      01000037H   LINE      CODE     ---       #92
      01000037H   LINE      CODE     ---       #94
      01000044H   LINE      CODE     ---       #96
      01000049H   LINE      CODE     ---       #97
      0100004FH   LINE      CODE     ---       #99
      01000051H   LINE      CODE     ---       #101
      01000083H   LINE      CODE     ---       #102
      01000083H   LINE      CODE     ---       #103
      01000083H   LINE      CODE     ---       #104
      01000088H   LINE      CODE     ---       #105
      01000088H   LINE      CODE     ---       #106
      0100008EH   LINE      CODE     ---       #107
      0100008EH   LINE      CODE     ---       #108
      010000A0H   LINE      CODE     ---       #109
      010000B5H   LINE      CODE     ---       #110
      010000B8H   LINE      CODE     ---       #111
      010000C3H   LINE      CODE     ---       #112
      010000C3H   LINE      CODE     ---       #113
      010000D0H   LINE      CODE     ---       #114
      010000D3H   LINE      CODE     ---       #115
      010000D3H   LINE      CODE     ---       #116
      010000DAH   LINE      CODE     ---       #117
      010000DAH   LINE      CODE     ---       #118
      010000E6H   LINE      CODE     ---       #119
      010000E6H   LINE      CODE     ---       #120
      010000F8H   LINE      CODE     ---       #121
      0100010DH   LINE      CODE     ---       #122
      01000110H   LINE      CODE     ---       #123
      0100011EH   LINE      CODE     ---       #124
      0100011EH   LINE      CODE     ---       #125
      0100012BH   LINE      CODE     ---       #126
      0100012EH   LINE      CODE     ---       #127
      0100012EH   LINE      CODE     ---       #128
      01000135H   LINE      CODE     ---       #129
LX51 LINKER/LOCATER V4.66.66.0                                                        12/27/2021  17:20:30  PAGE 30


      01000135H   LINE      CODE     ---       #130
      01000136H   LINE      CODE     ---       #131
      01000136H   LINE      CODE     ---       #132
      01000148H   LINE      CODE     ---       #133
      0100015DH   LINE      CODE     ---       #134
      01000162H   LINE      CODE     ---       #135
      01000177H   LINE      CODE     ---       #136
      01000177H   LINE      CODE     ---       #137
      01000184H   LINE      CODE     ---       #138
      01000187H   LINE      CODE     ---       #139
      01000187H   LINE      CODE     ---       #140
      0100018EH   LINE      CODE     ---       #141
      0100018EH   LINE      CODE     ---       #142
      01000190H   LINE      CODE     ---       #143
      01000190H   LINE      CODE     ---       #144
      010001A2H   LINE      CODE     ---       #145
      010001B7H   LINE      CODE     ---       #146
      010001B9H   LINE      CODE     ---       #147
      010001CFH   LINE      CODE     ---       #148
      010001CFH   LINE      CODE     ---       #149
      010001DCH   LINE      CODE     ---       #150
      010001DFH   LINE      CODE     ---       #151
      010001F1H   LINE      CODE     ---       #152
      010001F1H   LINE      CODE     ---       #153
      010001FEH   LINE      CODE     ---       #154
      01000201H   LINE      CODE     ---       #155
      01000201H   LINE      CODE     ---       #157
      01000218H   LINE      CODE     ---       #158
      01000218H   LINE      CODE     ---       #159
      01000224H   LINE      CODE     ---       #160
      01000230H   LINE      CODE     ---       #162
      0100023BH   LINE      CODE     ---       #163
      0100023BH   LINE      CODE     ---       #165
      01000247H   LINE      CODE     ---       #166
      01000247H   LINE      CODE     ---       #167
      0100024AH   LINE      CODE     ---       #168
      0100024AH   LINE      CODE     ---       #169
      01000251H   LINE      CODE     ---       #170
      01000251H   LINE      CODE     ---       #171
      01000263H   LINE      CODE     ---       #172
      01000266H   LINE      CODE     ---       #173
      0100026CH   LINE      CODE     ---       #174
      0100026CH   LINE      CODE     ---       #175
      01000277H   LINE      CODE     ---       #176
      01000277H   LINE      CODE     ---       #177
      01000284H   LINE      CODE     ---       #178
      01000287H   LINE      CODE     ---       #179
      01000287H   LINE      CODE     ---       #180
      0100028BH   LINE      CODE     ---       #181
      0100028BH   LINE      CODE     ---       #182
      01000299H   LINE      CODE     ---       #183
      01000299H   LINE      CODE     ---       #184
      010002A6H   LINE      CODE     ---       #185
      010002A9H   LINE      CODE     ---       #186
      010002A9H   LINE      CODE     ---       #187
      010002B1H   LINE      CODE     ---       #188
      010002B1H   LINE      CODE     ---       #189
      010002C3H   LINE      CODE     ---       #190
      010002C3H   LINE      CODE     ---       #191
      010002D0H   LINE      CODE     ---       #192
      010002D3H   LINE      CODE     ---       #193
      010002D3H   LINE      CODE     ---       #194
      010002D8H   LINE      CODE     ---       #195
      010002D8H   LINE      CODE     ---       #196
      010002EDH   LINE      CODE     ---       #197
LX51 LINKER/LOCATER V4.66.66.0                                                        12/27/2021  17:20:30  PAGE 31


      010002EDH   LINE      CODE     ---       #198
      010002FAH   LINE      CODE     ---       #199
      010002FDH   LINE      CODE     ---       #200
      0100030FH   LINE      CODE     ---       #201
      0100030FH   LINE      CODE     ---       #202
      0100031CH   LINE      CODE     ---       #203
      0100031FH   LINE      CODE     ---       #204
      0100031FH   LINE      CODE     ---       #205
      0100032BH   LINE      CODE     ---       #206
      01000330H   LINE      CODE     ---       #207
      01000332H   LINE      CODE     ---       #208
      01000332H   LINE      CODE     ---       #209
      01000334H   LINE      CODE     ---       #210
      01000334H   LINE      CODE     ---       #211
      01000346H   LINE      CODE     ---       #212
      0100035BH   LINE      CODE     ---       #213
      01000360H   LINE      CODE     ---       #214
      01000365H   LINE      CODE     ---       #215
      01000365H   LINE      CODE     ---       #216
      0100037FH   LINE      CODE     ---       #217
      0100037FH   LINE      CODE     ---       #218
      0100038BH   LINE      CODE     ---       #219
      01000396H   LINE      CODE     ---       #221
      010003A1H   LINE      CODE     ---       #222
      010003A1H   LINE      CODE     ---       #223
      010003A2H   LINE      CODE     ---       #224
      010003AEH   LINE      CODE     ---       #225
      010003AEH   LINE      CODE     ---       #226
      010003C8H   LINE      CODE     ---       #227
      010003C8H   LINE      CODE     ---       #228
      010003D4H   LINE      CODE     ---       #229
      010003E1H   LINE      CODE     ---       #231
      010003ECH   LINE      CODE     ---       #232
      010003ECH   LINE      CODE     ---       #233
      010003ECH   LINE      CODE     ---       #234
      010003ECH   LINE      CODE     ---       #246
      010003EFH   LINE      CODE     ---       #247
      010003EFH   LINE      CODE     ---       #248
      010003F1H   LINE      CODE     ---       #249
      010003F1H   LINE      CODE     ---       #250
      01000403H   LINE      CODE     ---       #251
      01000408H   LINE      CODE     ---       #252
      0100040DH   LINE      CODE     ---       #253
      0100040DH   LINE      CODE     ---       #254
      01000427H   LINE      CODE     ---       #255
      01000440H   LINE      CODE     ---       #256
      01000441H   LINE      CODE     ---       #257
      0100044DH   LINE      CODE     ---       #258
      0100044DH   LINE      CODE     ---       #259
      01000464H   LINE      CODE     ---       #260
      0100047DH   LINE      CODE     ---       #261
      0100047DH   LINE      CODE     ---       #262
      0100047DH   LINE      CODE     ---       #264
      01000480H   LINE      CODE     ---       #265
      01000480H   LINE      CODE     ---       #267
      01000480H   LINE      CODE     ---       #268
      01000485H   LINE      CODE     ---       #269
      01000487H   LINE      CODE     ---       #271
      01000487H   LINE      CODE     ---       #273
      01000487H   LINE      CODE     ---       #274
      0100049EH   LINE      CODE     ---       #275
      010004A3H   LINE      CODE     ---       #276
      010004BBH   LINE      CODE     ---       #277
      010004BBH   LINE      CODE     ---       #278
      010004BFH   LINE      CODE     ---       #279
LX51 LINKER/LOCATER V4.66.66.0                                                        12/27/2021  17:20:30  PAGE 32


      010004BFH   LINE      CODE     ---       #280
      010004CAH   LINE      CODE     ---       #281
      010004CAH   LINE      CODE     ---       #282
      010004CEH   LINE      CODE     ---       #283
      010004D2H   LINE      CODE     ---       #284
      010004D4H   LINE      CODE     ---       #286
      010004D4H   LINE      CODE     ---       #287
      010004D8H   LINE      CODE     ---       #288
      010004DDH   LINE      CODE     ---       #289
      010004DDH   LINE      CODE     ---       #290
      010004DDH   LINE      CODE     ---       #291
      010004EEH   LINE      CODE     ---       #292
      010004EEH   LINE      CODE     ---       #293
      010004F0H   LINE      CODE     ---       #294
      010004F0H   LINE      CODE     ---       #295
      010004F5H   LINE      CODE     ---       #296
      010004F5H   LINE      CODE     ---       #297
      010004F8H   LINE      CODE     ---       #298
      01000505H   LINE      CODE     ---       #299
      01000506H   LINE      CODE     ---       #300
      0100050BH   LINE      CODE     ---       #303
      01000510H   LINE      CODE     ---       #304
      01000510H   LINE      CODE     ---       #305
      01000513H   LINE      CODE     ---       #306
      01000525H   LINE      CODE     ---       #307
      01000526H   LINE      CODE     ---       #308
      0100052BH   LINE      CODE     ---       #311
      01000531H   LINE      CODE     ---       #312
      01000537H   LINE      CODE     ---       #313
      0100053EH   LINE      CODE     ---       #314
      0100053EH   LINE      CODE     ---       #315
      01000541H   LINE      CODE     ---       #316
      01000541H   LINE      CODE     ---       #317
      01000558H   LINE      CODE     ---       #318
      0100055DH   LINE      CODE     ---       #319
      01000565H   LINE      CODE     ---       #320
      01000565H   LINE      CODE     ---       #321
      01000568H   LINE      CODE     ---       #322
      01000581H   LINE      CODE     ---       #323
      01000588H   LINE      CODE     ---       #324
      01000588H   LINE      CODE     ---       #325
      01000596H   LINE      CODE     ---       #326
      01000596H   LINE      CODE     ---       #327
      010005A8H   LINE      CODE     ---       #328
      010005ABH   LINE      CODE     ---       #329
      010005ABH   LINE      CODE     ---       #330
      010005ABH   LINE      CODE     ---       #331
      010005C0H   LINE      CODE     ---       #332
      010005C0H   LINE      CODE     ---       #333
      010005C1H   LINE      CODE     ---       #334
      010005C1H   LINE      CODE     ---       #335
      010005CEH   LINE      CODE     ---       #336
      010005D5H   LINE      CODE     ---       #337
      010005D5H   LINE      CODE     ---       #338
      010005E3H   LINE      CODE     ---       #339
      010005E3H   LINE      CODE     ---       #340
      010005E5H   LINE      CODE     ---       #341
      010005E5H   LINE      CODE     ---       #342
      010005F7H   LINE      CODE     ---       #343
      010005FCH   LINE      CODE     ---       #344
      010005FCH   LINE      CODE     ---       #345
      01000602H   LINE      CODE     ---       #346
      01000603H   LINE      CODE     ---       #347
      01000603H   LINE      CODE     ---       #348
      01000605H   LINE      CODE     ---       #349
LX51 LINKER/LOCATER V4.66.66.0                                                        12/27/2021  17:20:30  PAGE 33


      01000605H   LINE      CODE     ---       #350
      01000617H   LINE      CODE     ---       #351
      0100061CH   LINE      CODE     ---       #352
      01000633H   LINE      CODE     ---       #353
      01000633H   LINE      CODE     ---       #354
      01000638H   LINE      CODE     ---       #355
      01000638H   LINE      CODE     ---       #356
      0100063DH   LINE      CODE     ---       #357
      01000641H   LINE      CODE     ---       #359
      01000645H   LINE      CODE     ---       #360
      01000646H   LINE      CODE     ---       #362
      01000646H   LINE      CODE     ---       #363
      0100064EH   LINE      CODE     ---       #364
      01000652H   LINE      CODE     ---       #366
      01000657H   LINE      CODE     ---       #367
      01000657H   LINE      CODE     ---       #368
      01000657H   LINE      CODE     ---       #369
      01000657H   LINE      CODE     ---       #370
      01000657H   LINE      CODE     ---       #371
      01000657H   LINE      CODE     ---       #372
      ---         BLOCKEND  ---      ---       LVL=0

      01000E1EH   BLOCK     CODE     ---       LVL=0
      01000E1EH   BLOCK     CODE     NEAR LAB  LVL=1
      020000C0H   SYMBOL    PDATA    ---       led_data_temp
      00000003H   SYMBOL    DATA     BYTE      led_index
      00000002H   SYMBOL    DATA     BYTE      color_index
      020000C3H   SYMBOL    PDATA    WORD      temp
      ---         BLOCKEND  ---      ---       LVL=1
      01000E1EH   LINE      CODE     ---       #374
      01000E1EH   LINE      CODE     ---       #375
      01000E1EH   LINE      CODE     ---       #377
      01000E31H   LINE      CODE     ---       #379
      01000E33H   LINE      CODE     ---       #382
      01000E33H   LINE      CODE     ---       #383
      01000E33H   LINE      CODE     ---       #384
      01000E46H   LINE      CODE     ---       #385
      01000E4EH   LINE      CODE     ---       #386
      01000E4EH   LINE      CODE     ---       #387
      01000E6EH   LINE      CODE     ---       #388
      01000E89H   LINE      CODE     ---       #389
      01000E8CH   LINE      CODE     ---       #390
      01000E8FH   LINE      CODE     ---       #391
      01000E9EH   LINE      CODE     ---       #392
      01000E9EH   LINE      CODE     ---       #393
      01000EA2H   LINE      CODE     ---       #394
      01000EBDH   LINE      CODE     ---       #395
      01000EC7H   LINE      CODE     ---       #396
      01000EC9H   LINE      CODE     ---       #397
      01000ED8H   LINE      CODE     ---       #398
      01000ED8H   LINE      CODE     ---       #399
      01000EF2H   LINE      CODE     ---       #400
      01000EF5H   LINE      CODE     ---       #401
      01000F17H   LINE      CODE     ---       #402
      01000F19H   LINE      CODE     ---       #403
      01000F24H   LINE      CODE     ---       #404
      01000F24H   LINE      CODE     ---       #405
      01000F38H   LINE      CODE     ---       #406
      01000F38H   LINE      CODE     ---       #407
      01000F38H   LINE      CODE     ---       #408
      01000F3AH   LINE      CODE     ---       #409
      01000F45H   LINE      CODE     ---       #410
      01000F45H   LINE      CODE     ---       #411
      01000F49H   LINE      CODE     ---       #412
      01000F4BH   LINE      CODE     ---       #413
LX51 LINKER/LOCATER V4.66.66.0                                                        12/27/2021  17:20:30  PAGE 34


      01000F4DH   LINE      CODE     ---       #414
      01000F4DH   LINE      CODE     ---       #415
      01000F4FH   LINE      CODE     ---       #416
      01000F4FH   LINE      CODE     ---       #418
      01000F54H   LINE      CODE     ---       #419
      01000F61H   LINE      CODE     ---       #420
      01000F66H   LINE      CODE     ---       #421
      01000F6FH   LINE      CODE     ---       #422
      ---         BLOCKEND  ---      ---       LVL=0

      ---         MODULE    ---      ---       UART
      00000080H   SFRSYM    DATA     BYTE      P0
      000000F8H   SFRSYM    DATA     BYTE      TKCON
      0000008EH   SFRSYM    DATA     BYTE      IDLST
      000000D5H   SFRSYM    DATA     BYTE      TMCON
      000000B0H   SFRSYM    DATA     BYTE      P3
      000000D0H.6 SFRSYM    DATA     BIT       AC
      000000B7H   SFRSYM    DATA     BYTE      PWMIF
      000000A8H.7 SFRSYM    DATA     BIT       EA
      000000C8H   SFRSYM    DATA     BIT       T2P0
      000000B9H   SFRSYM    DATA     BYTE      PWM0CON
      000000C8H.1 SFRSYM    DATA     BIT       T2P1
      000000BAH   SFRSYM    DATA     BYTE      PWM1CON
      000000C8H.4 SFRSYM    DATA     BIT       T2R0
      000000BBH   SFRSYM    DATA     BYTE      PWM2CON
      00000090H   SFRSYM    DATA     BYTE      PWMEN
      00000086H   SFRSYM    DATA     BYTE      PWCON
      000000C8H.5 SFRSYM    DATA     BIT       T2R1
      000000BCH   SFRSYM    DATA     BYTE      PWM3CON
      000000BDH   SFRSYM    DATA     BYTE      PWM4CON
      000000BEH   SFRSYM    DATA     BYTE      PWM5CON
      00000083H   SFRSYM    DATA     BYTE      DP0H
      000000A8H   SFRSYM    DATA     BYTE      IE
      00000085H   SFRSYM    DATA     BYTE      DP1H
      00000082H   SFRSYM    DATA     BYTE      DP0L
      000000CBH   SFRSYM    DATA     BYTE      T2CH
      000000C2H   SFRSYM    DATA     BYTE      I2CADM
      00000084H   SFRSYM    DATA     BYTE      DP1L
      000000C8H.3 SFRSYM    DATA     BIT       T2IE
      000000FAH   SFRSYM    DATA     BYTE      TKMTS
      000000CAH   SFRSYM    DATA     BYTE      T2CL
      000000C1H   SFRSYM    DATA     BYTE      I2CADR
      000000CFH   SFRSYM    DATA     BYTE      LEDWTMH
      000000D6H   SFRSYM    DATA     BYTE      TMSNU
      000000C6H   SFRSYM    DATA     BYTE      I2CFLG
      000000C4H   SFRSYM    DATA     BYTE      I2CDAT
      000000B8H   SFRSYM    DATA     BYTE      IP
      000000D0H.7 SFRSYM    DATA     BIT       CY
      000000D7H   SFRSYM    DATA     BYTE      LEDAT0
      000000CEH   SFRSYM    DATA     BYTE      LEDWTML
      000000F4H   SFRSYM    DATA     BYTE      ATK0CH
      000000C7H   SFRSYM    DATA     BYTE      LEDAT1
      000000F6H   SFRSYM    DATA     BYTE      ATK1CH
      000000DEH   SFRSYM    DATA     BYTE      AK0CON
      000000E9H   SFRSYM    DATA     BYTE      ATK2CH
      000000DFH   SFRSYM    DATA     BYTE      AK1CON
      000000EBH   SFRSYM    DATA     BYTE      ATK3CH
      000000C0H   SFRSYM    DATA     BYTE      I2CCON
      0000008FH   SFRSYM    DATA     BYTE      STPST
      000000F3H   SFRSYM    DATA     BYTE      ATK0CL
      000000EDH   SFRSYM    DATA     BYTE      ATK4CH
      000000F5H   SFRSYM    DATA     BYTE      ATK1CL
      000000EFH   SFRSYM    DATA     BYTE      ATK5CH
      000000F7H   SFRSYM    DATA     BYTE      ATK2CL
      00000081H   SFRSYM    DATA     BYTE      SP
LX51 LINKER/LOCATER V4.66.66.0                                                        12/27/2021  17:20:30  PAGE 35


      000000EAH   SFRSYM    DATA     BYTE      ATK3CL
      000000D0H.2 SFRSYM    DATA     BIT       OV
      000000ECH   SFRSYM    DATA     BYTE      ATK4CL
      000000D4H   SFRSYM    DATA     BYTE      EPIF
      000000EEH   SFRSYM    DATA     BYTE      ATK5CL
      000000D1H   SFRSYM    DATA     BYTE      EP0CON
      000000D2H   SFRSYM    DATA     BYTE      EP1CON
      000000C5H   SFRSYM    DATA     BYTE      I2CSTA
      000000D3H   SFRSYM    DATA     BYTE      EP2CON
      000000FCH   SFRSYM    DATA     BYTE      TK0CHS
      000000FBH   SFRSYM    DATA     BYTE      TKIF
      00000080H   SFRSYM    DATA     BIT       P00
      000000FDH   SFRSYM    DATA     BYTE      TK1CHS
      00000080H.1 SFRSYM    DATA     BIT       P01
      000000FEH   SFRSYM    DATA     BYTE      TK2CHS
      00000087H   SFRSYM    DATA     BYTE      PCON
      00000080H.2 SFRSYM    DATA     BIT       P02
      000000A8H.4 SFRSYM    DATA     BIT       INT2EN
      000000FFH   SFRSYM    DATA     BYTE      TK3CHS
      000000B0H   SFRSYM    DATA     BIT       P30
      00000080H.3 SFRSYM    DATA     BIT       P03
      000000A8H.5 SFRSYM    DATA     BIT       INT3EN
      000000F1H   SFRSYM    DATA     BYTE      TK4CHS
      000000B0H.1 SFRSYM    DATA     BIT       P31
      00000080H.4 SFRSYM    DATA     BIT       P04
      000000A8H.6 SFRSYM    DATA     BIT       INT4EN
      000000F2H   SFRSYM    DATA     BYTE      TK5CHS
      000000B0H.2 SFRSYM    DATA     BIT       P32
      00000080H.5 SFRSYM    DATA     BIT       P05
      00000089H   SFRSYM    DATA     BYTE      TMOD
      00000088H   SFRSYM    DATA     BYTE      TCON
      000000B0H.3 SFRSYM    DATA     BIT       P33
      00000080H.6 SFRSYM    DATA     BIT       P06
      000000B0H.4 SFRSYM    DATA     BIT       P34
      00000080H.7 SFRSYM    DATA     BIT       P07
      000000C8H.2 SFRSYM    DATA     BIT       UCKS
      000000B0H.5 SFRSYM    DATA     BIT       P35
      000000E2H   SFRSYM    DATA     BYTE      TK0MSH
      000000E4H   SFRSYM    DATA     BYTE      TK1MSH
      000000E6H   SFRSYM    DATA     BYTE      TK2MSH
      000000D9H   SFRSYM    DATA     BYTE      TK3MSH
      000000E1H   SFRSYM    DATA     BYTE      TK0MSL
      000000DBH   SFRSYM    DATA     BYTE      TK4MSH
      00000088H.1 SFRSYM    DATA     BIT       IE0
      000000E3H   SFRSYM    DATA     BYTE      TK1MSL
      000000DDH   SFRSYM    DATA     BYTE      TK5MSH
      00000088H.3 SFRSYM    DATA     BIT       IE1
      000000E5H   SFRSYM    DATA     BYTE      TK2MSL
      000000E7H   SFRSYM    DATA     BYTE      TK3MSL
      000000F0H   SFRSYM    DATA     BYTE      B
      000000DAH   SFRSYM    DATA     BYTE      TK4MSL
      000000DCH   SFRSYM    DATA     BYTE      TK5MSL
      000000E0H   SFRSYM    DATA     BYTE      ACC
      000000A8H.4 SFRSYM    DATA     BIT       ES0
      000000E8H   SFRSYM    DATA     BYTE      LVDCON
      000000A8H.1 SFRSYM    DATA     BIT       ET0
      000000A8H.3 SFRSYM    DATA     BIT       ET1
      00000088H.5 SFRSYM    DATA     BIT       TF0
      00000098H   SFRSYM    DATA     BIT       RI0
      00000088H.7 SFRSYM    DATA     BIT       TF1
      000000C8H.7 SFRSYM    DATA     BIT       TF2
      00000098H.2 SFRSYM    DATA     BIT       RB8
      0000008CH   SFRSYM    DATA     BYTE      TH0
      000000A8H   SFRSYM    DATA     BIT       EX0
      00000098H.1 SFRSYM    DATA     BIT       TI0
LX51 LINKER/LOCATER V4.66.66.0                                                        12/27/2021  17:20:30  PAGE 36


      00000088H   SFRSYM    DATA     BIT       IT0
      0000008DH   SFRSYM    DATA     BYTE      TH1
      000000A8H.2 SFRSYM    DATA     BIT       EX1
      00000098H.3 SFRSYM    DATA     BIT       TB8
      00000088H.2 SFRSYM    DATA     BIT       IT1
      000000CDH   SFRSYM    DATA     BYTE      TH2
      000000D0H   SFRSYM    DATA     BIT       P
      00000098H.7 SFRSYM    DATA     BIT       SM0
      0000008AH   SFRSYM    DATA     BYTE      TL0
      00000098H.6 SFRSYM    DATA     BIT       SM1
      0000008BH   SFRSYM    DATA     BYTE      TL1
      00000098H.5 SFRSYM    DATA     BIT       SM2
      000000CCH   SFRSYM    DATA     BYTE      TL2
      000000AAH   SFRSYM    DATA     BYTE      PWM0DIVH
      000000B8H.4 SFRSYM    DATA     BIT       PS0
      000000ACH   SFRSYM    DATA     BYTE      PWM1DIVH
      000000B8H.1 SFRSYM    DATA     BIT       PT0
      000000B8H.6 SFRSYM    DATA     BIT       PS1
      000000C3H   SFRSYM    DATA     BYTE      I2CCR
      000000AEH   SFRSYM    DATA     BYTE      PWM2DIVH
      000000B8H.3 SFRSYM    DATA     BIT       PT1
      000000D0H.3 SFRSYM    DATA     BIT       RS0
      000000A4H   SFRSYM    DATA     BYTE      PWM3DIVH
      000000B8H.5 SFRSYM    DATA     BIT       PT2
      00000088H.4 SFRSYM    DATA     BIT       TR0
      000000D0H.4 SFRSYM    DATA     BIT       RS1
      000000A9H   SFRSYM    DATA     BYTE      PWM0DIVL
      000000A6H   SFRSYM    DATA     BYTE      PWM4DIVH
      00000088H.6 SFRSYM    DATA     BIT       TR1
      000000ABH   SFRSYM    DATA     BYTE      PWM1DIVL
      000000A3H   SFRSYM    DATA     BYTE      WDVTHH
      0000009AH   SFRSYM    DATA     BYTE      PWM5DIVH
      000000C8H.6 SFRSYM    DATA     BIT       TR2
      000000B8H   SFRSYM    DATA     BIT       PX0
      000000ADH   SFRSYM    DATA     BYTE      PWM2DIVL
      000000B8H.2 SFRSYM    DATA     BIT       PX1
      000000AFH   SFRSYM    DATA     BYTE      PWM3DIVL
      000000A5H   SFRSYM    DATA     BYTE      PWM4DIVL
      000000A7H   SFRSYM    DATA     BYTE      PWM5DIVL
      000000A2H   SFRSYM    DATA     BYTE      WDVTHL
      0000009CH   SFRSYM    DATA     BYTE      PWM0DUTH
      0000009EH   SFRSYM    DATA     BYTE      PWM1DUTH
      00000091H   SFRSYM    DATA     BYTE      PWM2DUTH
      00000093H   SFRSYM    DATA     BYTE      PWM3DUTH
      0000009BH   SFRSYM    DATA     BYTE      PWM0DUTL
      00000095H   SFRSYM    DATA     BYTE      PWM4DUTH
      0000009DH   SFRSYM    DATA     BYTE      PWM1DUTL
      00000099H   SFRSYM    DATA     BYTE      S0BUF
      00000097H   SFRSYM    DATA     BYTE      PWM5DUTH
      0000009FH   SFRSYM    DATA     BYTE      PWM2DUTL
      00000092H   SFRSYM    DATA     BYTE      PWM3DUTL
      00000098H   SFRSYM    DATA     BYTE      S0CON
      00000094H   SFRSYM    DATA     BYTE      PWM4DUTL
      00000098H.4 SFRSYM    DATA     BIT       REN
      00000096H   SFRSYM    DATA     BYTE      PWM5DUTL
      000000D0H.1 SFRSYM    DATA     BIT       DPS
      000000C9H   SFRSYM    DATA     BYTE      T2MOD
      000000C8H   SFRSYM    DATA     BYTE      T2CON
      000000BFH   SFRSYM    DATA     BYTE      LEFLG
      000000F9H   SFRSYM    DATA     BYTE      TKCFG
      000000D0H.5 SFRSYM    DATA     BIT       F0
      000000A1H   SFRSYM    DATA     BYTE      WDFLG
      000000B1H   SFRSYM    DATA     BYTE      PWM0CKD
      000000B2H   SFRSYM    DATA     BYTE      PWM1CKD
      000000D0H   SFRSYM    DATA     BYTE      PSW
LX51 LINKER/LOCATER V4.66.66.0                                                        12/27/2021  17:20:30  PAGE 37


      000000B3H   SFRSYM    DATA     BYTE      PWM2CKD
      000000D8H   SFRSYM    DATA     BYTE      UDCKS
      000000B4H   SFRSYM    DATA     BYTE      PWM3CKD
      000000B5H   SFRSYM    DATA     BYTE      PWM4CKD
      000000A0H   SFRSYM    DATA     BYTE      WDCON
      000000B6H   SFRSYM    DATA     BYTE      PWM5CKD

      ---         MODULE    ---      ---       KEY
      020000AFH   PUBLIC    PDATA    ---       keyStaBuff
      020000AEH   PUBLIC    PDATA    BYTE      F_keyDone
      020000AAH   PUBLIC    PDATA    DWORD     keySta
      020000A6H   PUBLIC    PDATA    DWORD     keyStaBackup
      020000A2H   PUBLIC    PDATA    DWORD     keyCode
      020000A0H   PUBLIC    PDATA    WORD      keyDownTime_ms
      01001271H   PUBLIC    CODE     ---       _userIrCodeChange
      01000658H   PUBLIC    CODE     ---       keyAction
      01000F70H   PUBLIC    CODE     ---       keyScan
      00000080H   SFRSYM    DATA     BYTE      P0
      000000F8H   SFRSYM    DATA     BYTE      TKCON
      0000008EH   SFRSYM    DATA     BYTE      IDLST
      000000D5H   SFRSYM    DATA     BYTE      TMCON
      000000B0H   SFRSYM    DATA     BYTE      P3
      000000D0H.6 SFRSYM    DATA     BIT       AC
      000000B7H   SFRSYM    DATA     BYTE      PWMIF
      000000A8H.7 SFRSYM    DATA     BIT       EA
      000000C8H   SFRSYM    DATA     BIT       T2P0
      000000B9H   SFRSYM    DATA     BYTE      PWM0CON
      000000C8H.1 SFRSYM    DATA     BIT       T2P1
      000000BAH   SFRSYM    DATA     BYTE      PWM1CON
      000000C8H.4 SFRSYM    DATA     BIT       T2R0
      000000BBH   SFRSYM    DATA     BYTE      PWM2CON
      00000090H   SFRSYM    DATA     BYTE      PWMEN
      00000086H   SFRSYM    DATA     BYTE      PWCON
      000000C8H.5 SFRSYM    DATA     BIT       T2R1
      000000BCH   SFRSYM    DATA     BYTE      PWM3CON
      000000BDH   SFRSYM    DATA     BYTE      PWM4CON
      000000BEH   SFRSYM    DATA     BYTE      PWM5CON
      00000083H   SFRSYM    DATA     BYTE      DP0H
      000000A8H   SFRSYM    DATA     BYTE      IE
      00000085H   SFRSYM    DATA     BYTE      DP1H
      00000082H   SFRSYM    DATA     BYTE      DP0L
      000000CBH   SFRSYM    DATA     BYTE      T2CH
      000000C2H   SFRSYM    DATA     BYTE      I2CADM
      00000084H   SFRSYM    DATA     BYTE      DP1L
      000000C8H.3 SFRSYM    DATA     BIT       T2IE
      000000FAH   SFRSYM    DATA     BYTE      TKMTS
      000000CAH   SFRSYM    DATA     BYTE      T2CL
      000000C1H   SFRSYM    DATA     BYTE      I2CADR
      000000CFH   SFRSYM    DATA     BYTE      LEDWTMH
      000000D6H   SFRSYM    DATA     BYTE      TMSNU
      000000C6H   SFRSYM    DATA     BYTE      I2CFLG
      000000C4H   SFRSYM    DATA     BYTE      I2CDAT
      000000B8H   SFRSYM    DATA     BYTE      IP
      000000D0H.7 SFRSYM    DATA     BIT       CY
      000000D7H   SFRSYM    DATA     BYTE      LEDAT0
      000000CEH   SFRSYM    DATA     BYTE      LEDWTML
      000000F4H   SFRSYM    DATA     BYTE      ATK0CH
      000000C7H   SFRSYM    DATA     BYTE      LEDAT1
      000000F6H   SFRSYM    DATA     BYTE      ATK1CH
      000000DEH   SFRSYM    DATA     BYTE      AK0CON
      000000E9H   SFRSYM    DATA     BYTE      ATK2CH
      000000DFH   SFRSYM    DATA     BYTE      AK1CON
      000000EBH   SFRSYM    DATA     BYTE      ATK3CH
      000000C0H   SFRSYM    DATA     BYTE      I2CCON
      0000008FH   SFRSYM    DATA     BYTE      STPST
LX51 LINKER/LOCATER V4.66.66.0                                                        12/27/2021  17:20:30  PAGE 38


      000000F3H   SFRSYM    DATA     BYTE      ATK0CL
      000000EDH   SFRSYM    DATA     BYTE      ATK4CH
      000000F5H   SFRSYM    DATA     BYTE      ATK1CL
      000000EFH   SFRSYM    DATA     BYTE      ATK5CH
      000000F7H   SFRSYM    DATA     BYTE      ATK2CL
      00000081H   SFRSYM    DATA     BYTE      SP
      000000EAH   SFRSYM    DATA     BYTE      ATK3CL
      000000D0H.2 SFRSYM    DATA     BIT       OV
      000000ECH   SFRSYM    DATA     BYTE      ATK4CL
      000000D4H   SFRSYM    DATA     BYTE      EPIF
      000000EEH   SFRSYM    DATA     BYTE      ATK5CL
      000000D1H   SFRSYM    DATA     BYTE      EP0CON
      000000D2H   SFRSYM    DATA     BYTE      EP1CON
      000000C5H   SFRSYM    DATA     BYTE      I2CSTA
      000000D3H   SFRSYM    DATA     BYTE      EP2CON
      000000FCH   SFRSYM    DATA     BYTE      TK0CHS
      000000FBH   SFRSYM    DATA     BYTE      TKIF
      00000080H   SFRSYM    DATA     BIT       P00
      000000FDH   SFRSYM    DATA     BYTE      TK1CHS
      00000080H.1 SFRSYM    DATA     BIT       P01
      000000FEH   SFRSYM    DATA     BYTE      TK2CHS
      00000087H   SFRSYM    DATA     BYTE      PCON
      00000080H.2 SFRSYM    DATA     BIT       P02
      000000A8H.4 SFRSYM    DATA     BIT       INT2EN
      000000FFH   SFRSYM    DATA     BYTE      TK3CHS
      000000B0H   SFRSYM    DATA     BIT       P30
      00000080H.3 SFRSYM    DATA     BIT       P03
      000000A8H.5 SFRSYM    DATA     BIT       INT3EN
      000000F1H   SFRSYM    DATA     BYTE      TK4CHS
      000000B0H.1 SFRSYM    DATA     BIT       P31
      00000080H.4 SFRSYM    DATA     BIT       P04
      000000A8H.6 SFRSYM    DATA     BIT       INT4EN
      000000F2H   SFRSYM    DATA     BYTE      TK5CHS
      000000B0H.2 SFRSYM    DATA     BIT       P32
      00000080H.5 SFRSYM    DATA     BIT       P05
      00000089H   SFRSYM    DATA     BYTE      TMOD
      00000088H   SFRSYM    DATA     BYTE      TCON
      000000B0H.3 SFRSYM    DATA     BIT       P33
      00000080H.6 SFRSYM    DATA     BIT       P06
      000000B0H.4 SFRSYM    DATA     BIT       P34
      00000080H.7 SFRSYM    DATA     BIT       P07
      000000C8H.2 SFRSYM    DATA     BIT       UCKS
      000000B0H.5 SFRSYM    DATA     BIT       P35
      000000E2H   SFRSYM    DATA     BYTE      TK0MSH
      000000E4H   SFRSYM    DATA     BYTE      TK1MSH
      000000E6H   SFRSYM    DATA     BYTE      TK2MSH
      000000D9H   SFRSYM    DATA     BYTE      TK3MSH
      000000E1H   SFRSYM    DATA     BYTE      TK0MSL
      000000DBH   SFRSYM    DATA     BYTE      TK4MSH
      00000088H.1 SFRSYM    DATA     BIT       IE0
      000000E3H   SFRSYM    DATA     BYTE      TK1MSL
      000000DDH   SFRSYM    DATA     BYTE      TK5MSH
      00000088H.3 SFRSYM    DATA     BIT       IE1
      000000E5H   SFRSYM    DATA     BYTE      TK2MSL
      000000E7H   SFRSYM    DATA     BYTE      TK3MSL
      000000F0H   SFRSYM    DATA     BYTE      B
      000000DAH   SFRSYM    DATA     BYTE      TK4MSL
      000000DCH   SFRSYM    DATA     BYTE      TK5MSL
      000000E0H   SFRSYM    DATA     BYTE      ACC
      000000A8H.4 SFRSYM    DATA     BIT       ES0
      000000E8H   SFRSYM    DATA     BYTE      LVDCON
      000000A8H.1 SFRSYM    DATA     BIT       ET0
      000000A8H.3 SFRSYM    DATA     BIT       ET1
      00000088H.5 SFRSYM    DATA     BIT       TF0
      00000098H   SFRSYM    DATA     BIT       RI0
LX51 LINKER/LOCATER V4.66.66.0                                                        12/27/2021  17:20:30  PAGE 39


      00000088H.7 SFRSYM    DATA     BIT       TF1
      000000C8H.7 SFRSYM    DATA     BIT       TF2
      00000098H.2 SFRSYM    DATA     BIT       RB8
      0000008CH   SFRSYM    DATA     BYTE      TH0
      000000A8H   SFRSYM    DATA     BIT       EX0
      00000098H.1 SFRSYM    DATA     BIT       TI0
      00000088H   SFRSYM    DATA     BIT       IT0
      0000008DH   SFRSYM    DATA     BYTE      TH1
      000000A8H.2 SFRSYM    DATA     BIT       EX1
      00000098H.3 SFRSYM    DATA     BIT       TB8
      00000088H.2 SFRSYM    DATA     BIT       IT1
      000000CDH   SFRSYM    DATA     BYTE      TH2
      000000D0H   SFRSYM    DATA     BIT       P
      00000098H.7 SFRSYM    DATA     BIT       SM0
      0000008AH   SFRSYM    DATA     BYTE      TL0
      00000098H.6 SFRSYM    DATA     BIT       SM1
      0000008BH   SFRSYM    DATA     BYTE      TL1
      00000098H.5 SFRSYM    DATA     BIT       SM2
      000000CCH   SFRSYM    DATA     BYTE      TL2
      000000AAH   SFRSYM    DATA     BYTE      PWM0DIVH
      000000B8H.4 SFRSYM    DATA     BIT       PS0
      000000ACH   SFRSYM    DATA     BYTE      PWM1DIVH
      000000B8H.1 SFRSYM    DATA     BIT       PT0
      000000B8H.6 SFRSYM    DATA     BIT       PS1
      000000C3H   SFRSYM    DATA     BYTE      I2CCR
      000000AEH   SFRSYM    DATA     BYTE      PWM2DIVH
      000000B8H.3 SFRSYM    DATA     BIT       PT1
      000000D0H.3 SFRSYM    DATA     BIT       RS0
      000000A4H   SFRSYM    DATA     BYTE      PWM3DIVH
      000000B8H.5 SFRSYM    DATA     BIT       PT2
      00000088H.4 SFRSYM    DATA     BIT       TR0
      000000D0H.4 SFRSYM    DATA     BIT       RS1
      000000A9H   SFRSYM    DATA     BYTE      PWM0DIVL
      000000A6H   SFRSYM    DATA     BYTE      PWM4DIVH
      00000088H.6 SFRSYM    DATA     BIT       TR1
      000000ABH   SFRSYM    DATA     BYTE      PWM1DIVL
      000000A3H   SFRSYM    DATA     BYTE      WDVTHH
      0000009AH   SFRSYM    DATA     BYTE      PWM5DIVH
      000000C8H.6 SFRSYM    DATA     BIT       TR2
      000000B8H   SFRSYM    DATA     BIT       PX0
      000000ADH   SFRSYM    DATA     BYTE      PWM2DIVL
      000000B8H.2 SFRSYM    DATA     BIT       PX1
      000000AFH   SFRSYM    DATA     BYTE      PWM3DIVL
      000000A5H   SFRSYM    DATA     BYTE      PWM4DIVL
      000000A7H   SFRSYM    DATA     BYTE      PWM5DIVL
      000000A2H   SFRSYM    DATA     BYTE      WDVTHL
      0000009CH   SFRSYM    DATA     BYTE      PWM0DUTH
      0000009EH   SFRSYM    DATA     BYTE      PWM1DUTH
      00000091H   SFRSYM    DATA     BYTE      PWM2DUTH
      00000093H   SFRSYM    DATA     BYTE      PWM3DUTH
      0000009BH   SFRSYM    DATA     BYTE      PWM0DUTL
      00000095H   SFRSYM    DATA     BYTE      PWM4DUTH
      0000009DH   SFRSYM    DATA     BYTE      PWM1DUTL
      00000099H   SFRSYM    DATA     BYTE      S0BUF
      00000097H   SFRSYM    DATA     BYTE      PWM5DUTH
      0000009FH   SFRSYM    DATA     BYTE      PWM2DUTL
      00000092H   SFRSYM    DATA     BYTE      PWM3DUTL
      00000098H   SFRSYM    DATA     BYTE      S0CON
      00000094H   SFRSYM    DATA     BYTE      PWM4DUTL
      00000098H.4 SFRSYM    DATA     BIT       REN
      00000096H   SFRSYM    DATA     BYTE      PWM5DUTL
      000000D0H.1 SFRSYM    DATA     BIT       DPS
      000000C9H   SFRSYM    DATA     BYTE      T2MOD
      000000C8H   SFRSYM    DATA     BYTE      T2CON
      000000BFH   SFRSYM    DATA     BYTE      LEFLG
LX51 LINKER/LOCATER V4.66.66.0                                                        12/27/2021  17:20:30  PAGE 40


      000000F9H   SFRSYM    DATA     BYTE      TKCFG
      000000D0H.5 SFRSYM    DATA     BIT       F0
      000000A1H   SFRSYM    DATA     BYTE      WDFLG
      000000B1H   SFRSYM    DATA     BYTE      PWM0CKD
      000000B2H   SFRSYM    DATA     BYTE      PWM1CKD
      000000D0H   SFRSYM    DATA     BYTE      PSW
      000000B3H   SFRSYM    DATA     BYTE      PWM2CKD
      000000D8H   SFRSYM    DATA     BYTE      UDCKS
      000000B4H   SFRSYM    DATA     BYTE      PWM3CKD
      000000B5H   SFRSYM    DATA     BYTE      PWM4CKD
      000000A0H   SFRSYM    DATA     BYTE      WDCON
      000000B6H   SFRSYM    DATA     BYTE      PWM5CKD

      01000F70H   BLOCK     CODE     ---       LVL=0
      01000F70H   BLOCK     CODE     NEAR LAB  LVL=1
      020000C0H   SYMBOL    PDATA    BYTE      i
      ---         BLOCKEND  ---      ---       LVL=1
      01000F70H   LINE      CODE     ---       #20
      01000F70H   LINE      CODE     ---       #21
      01000F70H   LINE      CODE     ---       #22
      01000F74H   LINE      CODE     ---       #24
      01000F7AH   LINE      CODE     ---       #25
      01000F7FH   LINE      CODE     ---       #27
      01000F84H   LINE      CODE     ---       #29
      01000F94H   LINE      CODE     ---       #30
      01000F94H   LINE      CODE     ---       #31
      01000F9DH   LINE      CODE     ---       #32
      01000FE6H   LINE      CODE     ---       #33
      01000FF3H   LINE      CODE     ---       #34
      0100103DH   LINE      CODE     ---       #35
      01001045H   LINE      CODE     ---       #57
      ---         BLOCKEND  ---      ---       LVL=0

      01000658H   BLOCK     CODE     ---       LVL=0
      01000658H   LINE      CODE     ---       #60
      01000658H   LINE      CODE     ---       #61
      01000658H   LINE      CODE     ---       #62
      01000660H   LINE      CODE     ---       #63
      01000660H   LINE      CODE     ---       #64
      0100066CH   LINE      CODE     ---       #65
      0100066CH   LINE      CODE     ---       #66
      01000672H   LINE      CODE     ---       #67
      01000676H   LINE      CODE     ---       #68
      0100067AH   LINE      CODE     ---       #69
      0100067EH   LINE      CODE     ---       #71
      01000683H   LINE      CODE     ---       #72
      01000683H   LINE      CODE     ---       #74
      010006A4H   LINE      CODE     ---       #77
      01000748H   LINE      CODE     ---       #78
      01000748H   LINE      CODE     ---       #79
      01000748H   LINE      CODE     ---       #80
      01000750H   LINE      CODE     ---       #81
      01000757H   LINE      CODE     ---       #83
      0100075CH   LINE      CODE     ---       #84
      0100075CH   LINE      CODE     ---       #85
      0100075FH   LINE      CODE     ---       #86
      0100075FH   LINE      CODE     ---       #87
      01000767H   LINE      CODE     ---       #88
      0100076DH   LINE      CODE     ---       #90
      01000772H   LINE      CODE     ---       #91
      01000772H   LINE      CODE     ---       #92
      01000775H   LINE      CODE     ---       #93
      01000775H   LINE      CODE     ---       #94
      01000779H   LINE      CODE     ---       #95
      0100077DH   LINE      CODE     ---       #96
LX51 LINKER/LOCATER V4.66.66.0                                                        12/27/2021  17:20:30  PAGE 41


      0100077EH   LINE      CODE     ---       #97
      0100077EH   LINE      CODE     ---       #98
      01000785H   LINE      CODE     ---       #99
      0100078AH   LINE      CODE     ---       #101
      01000797H   LINE      CODE     ---       #102
      01000797H   LINE      CODE     ---       #103
      0100079AH   LINE      CODE     ---       #104
      0100079AH   LINE      CODE     ---       #105
      010007A0H   LINE      CODE     ---       #106
      010007A6H   LINE      CODE     ---       #107
      010007A9H   LINE      CODE     ---       #108
      010007A9H   LINE      CODE     ---       #109
      010007ACH   LINE      CODE     ---       #110
      010007ACH   LINE      CODE     ---       #111
      010007B4H   LINE      CODE     ---       #112
      010007BAH   LINE      CODE     ---       #113
      010007BDH   LINE      CODE     ---       #114
      010007BDH   LINE      CODE     ---       #115
      010007C0H   LINE      CODE     ---       #116
      010007C0H   LINE      CODE     ---       #117
      010007C9H   LINE      CODE     ---       #118
      010007CFH   LINE      CODE     ---       #119
      010007D2H   LINE      CODE     ---       #120
      010007D2H   LINE      CODE     ---       #121
      010007D5H   LINE      CODE     ---       #122
      010007D5H   LINE      CODE     ---       #123
      010007DEH   LINE      CODE     ---       #124
      010007E4H   LINE      CODE     ---       #125
      010007E7H   LINE      CODE     ---       #126
      010007E7H   LINE      CODE     ---       #127
      010007EAH   LINE      CODE     ---       #128
      010007EAH   LINE      CODE     ---       #129
      010007F2H   LINE      CODE     ---       #130
      010007F8H   LINE      CODE     ---       #131
      010007FBH   LINE      CODE     ---       #132
      010007FBH   LINE      CODE     ---       #133
      010007FEH   LINE      CODE     ---       #134
      010007FEH   LINE      CODE     ---       #135
      01000807H   LINE      CODE     ---       #136
      0100080DH   LINE      CODE     ---       #137
      01000810H   LINE      CODE     ---       #138
      01000810H   LINE      CODE     ---       #139
      01000813H   LINE      CODE     ---       #140
      01000813H   LINE      CODE     ---       #141
      0100081CH   LINE      CODE     ---       #142
      01000822H   LINE      CODE     ---       #143
      01000825H   LINE      CODE     ---       #144
      01000825H   LINE      CODE     ---       #145
      01000828H   LINE      CODE     ---       #146
      01000828H   LINE      CODE     ---       #147
      0100082FH   LINE      CODE     ---       #148
      0100082FH   LINE      CODE     ---       #149
      01000832H   LINE      CODE     ---       #150
      01000834H   LINE      CODE     ---       #151
      0100083EH   LINE      CODE     ---       #152
      0100083EH   LINE      CODE     ---       #153
      01000840H   LINE      CODE     ---       #154
      01000840H   LINE      CODE     ---       #155
      01000840H   LINE      CODE     ---       #156
      01000843H   LINE      CODE     ---       #157
      01000843H   LINE      CODE     ---       #158
      0100084BH   LINE      CODE     ---       #159
      01000851H   LINE      CODE     ---       #160
      01000854H   LINE      CODE     ---       #161
      01000854H   LINE      CODE     ---       #162
LX51 LINKER/LOCATER V4.66.66.0                                                        12/27/2021  17:20:30  PAGE 42


      01000857H   LINE      CODE     ---       #163
      01000857H   LINE      CODE     ---       #164
      01000860H   LINE      CODE     ---       #165
      01000866H   LINE      CODE     ---       #166
      01000869H   LINE      CODE     ---       #167
      01000869H   LINE      CODE     ---       #168
      0100086CH   LINE      CODE     ---       #169
      0100086CH   LINE      CODE     ---       #170
      01000875H   LINE      CODE     ---       #171
      0100087BH   LINE      CODE     ---       #172
      0100087EH   LINE      CODE     ---       #173
      0100087EH   LINE      CODE     ---       #174
      01000881H   LINE      CODE     ---       #175
      01000881H   LINE      CODE     ---       #176
      01000888H   LINE      CODE     ---       #177
      01000888H   LINE      CODE     ---       #178
      0100088BH   LINE      CODE     ---       #179
      0100088DH   LINE      CODE     ---       #180
      01000897H   LINE      CODE     ---       #181
      01000897H   LINE      CODE     ---       #182
      01000899H   LINE      CODE     ---       #183
      01000899H   LINE      CODE     ---       #184
      01000899H   LINE      CODE     ---       #185
      0100089CH   LINE      CODE     ---       #186
      0100089CH   LINE      CODE     ---       #187
      010008A4H   LINE      CODE     ---       #188
      010008AAH   LINE      CODE     ---       #189
      010008ADH   LINE      CODE     ---       #190
      010008ADH   LINE      CODE     ---       #191
      010008B0H   LINE      CODE     ---       #192
      010008B0H   LINE      CODE     ---       #193
      010008B9H   LINE      CODE     ---       #194
      010008BFH   LINE      CODE     ---       #195
      010008C2H   LINE      CODE     ---       #196
      010008C2H   LINE      CODE     ---       #197
      010008C5H   LINE      CODE     ---       #198
      010008C5H   LINE      CODE     ---       #199
      010008CEH   LINE      CODE     ---       #200
      010008D4H   LINE      CODE     ---       #201
      010008D7H   LINE      CODE     ---       #202
      010008D7H   LINE      CODE     ---       #203
      010008DAH   LINE      CODE     ---       #204
      010008DAH   LINE      CODE     ---       #205
      010008E1H   LINE      CODE     ---       #206
      010008E1H   LINE      CODE     ---       #207
      010008E4H   LINE      CODE     ---       #208
      010008E6H   LINE      CODE     ---       #209
      010008F0H   LINE      CODE     ---       #210
      010008F0H   LINE      CODE     ---       #211
      010008F2H   LINE      CODE     ---       #212
      010008F2H   LINE      CODE     ---       #213
      010008F2H   LINE      CODE     ---       #214
      010008F4H   LINE      CODE     ---       #215
      010008F4H   LINE      CODE     ---       #216
      010008FCH   LINE      CODE     ---       #217
      01000902H   LINE      CODE     ---       #218
      01000905H   LINE      CODE     ---       #219
      01000905H   LINE      CODE     ---       #220
      01000907H   LINE      CODE     ---       #221
      01000907H   LINE      CODE     ---       #222
      01000910H   LINE      CODE     ---       #223
      01000916H   LINE      CODE     ---       #224
      01000919H   LINE      CODE     ---       #225
      01000919H   LINE      CODE     ---       #226
      0100091BH   LINE      CODE     ---       #227
LX51 LINKER/LOCATER V4.66.66.0                                                        12/27/2021  17:20:30  PAGE 43


      0100091BH   LINE      CODE     ---       #228
      01000924H   LINE      CODE     ---       #229
      0100092AH   LINE      CODE     ---       #230
      0100092DH   LINE      CODE     ---       #231
      0100092DH   LINE      CODE     ---       #232
      0100092FH   LINE      CODE     ---       #233
      0100092FH   LINE      CODE     ---       #234
      01000934H   LINE      CODE     ---       #235
      01000934H   LINE      CODE     ---       #236
      0100093BH   LINE      CODE     ---       #237
      0100093BH   LINE      CODE     ---       #238
      0100093BH   LINE      CODE     ---       #239
      0100093DH   LINE      CODE     ---       #240
      01000947H   LINE      CODE     ---       #241
      01000947H   LINE      CODE     ---       #242
      01000949H   LINE      CODE     ---       #243
      01000949H   LINE      CODE     ---       #244
      0100094BH   LINE      CODE     ---       #246
      0100094BH   LINE      CODE     ---       #247
      01000952H   LINE      CODE     ---       #248
      01000952H   LINE      CODE     ---       #249
      01000955H   LINE      CODE     ---       #250
      01000957H   LINE      CODE     ---       #251
      01000961H   LINE      CODE     ---       #252
      01000961H   LINE      CODE     ---       #253
      01000963H   LINE      CODE     ---       #254
      01000968H   LINE      CODE     ---       #255
      01000968H   LINE      CODE     ---       #256
      01000968H   LINE      CODE     ---       #257
      0100096DH   LINE      CODE     ---       #258
      0100096DH   LINE      CODE     ---       #259
      0100096DH   LINE      CODE     ---       #260
      0100096DH   LINE      CODE     ---       #261
      0100096DH   LINE      CODE     ---       #262
      0100096DH   LINE      CODE     ---       #346
      ---         BLOCKEND  ---      ---       LVL=0

      01001271H   BLOCK     CODE     ---       LVL=0
      020000BEH   SYMBOL    PDATA    WORD      irCode
      01001278H   BLOCK     CODE     NEAR LAB  LVL=1
      00000004H   SYMBOL    DATA     WORD      temp
      00000002H   SYMBOL    DATA     WORD      i
      ---         BLOCKEND  ---      ---       LVL=1
      01001271H   LINE      CODE     ---       #348
      01001278H   LINE      CODE     ---       #349
      01001278H   LINE      CODE     ---       #350
      0100127DH   LINE      CODE     ---       #352
      0100127DH   LINE      CODE     ---       #353
      0100127DH   LINE      CODE     ---       #354
      0100129BH   LINE      CODE     ---       #355
      010012B7H   LINE      CODE     ---       #356
      010012C2H   LINE      CODE     ---       #357
      010012C6H   LINE      CODE     ---       #358
      ---         BLOCKEND  ---      ---       LVL=0

      ---         MODULE    ---      ---       ?C_STARTUP
      01000000H   PUBLIC    CODE     ---       ?C_STARTUP
      000000E0H   SYMBOL    DATA     ---       ACC
      000000F0H   SYMBOL    DATA     ---       B
      00000083H   SYMBOL    DATA     ---       DPH
      00000082H   SYMBOL    DATA     ---       DPL
      00000000H   SYMBOL    NUMBER   ---       IBPSTACK
      00000100H   SYMBOL    NUMBER   ---       IBPSTACKTOP
      00000080H   SYMBOL    NUMBER   ---       IDATALEN
      0100110AH   SYMBOL    CODE     ---       IDATALOOP
LX51 LINKER/LOCATER V4.66.66.0                                                        12/27/2021  17:20:30  PAGE 44


      00000000H   SYMBOL    NUMBER   ---       PBPSTACK
      00000100H   SYMBOL    NUMBER   ---       PBPSTACKTOP
      00000000H   SYMBOL    NUMBER   ---       PDATALEN
      00000000H   SYMBOL    NUMBER   ---       PDATASTART
      00000000H   SYMBOL    NUMBER   ---       PPAGE
      00000000H   SYMBOL    NUMBER   ---       PPAGEENABLE
      000000A0H   SYMBOL    DATA     ---       PPAGE_SFR
      00000081H   SYMBOL    DATA     ---       SP
      01001107H   SYMBOL    CODE     ---       STARTUP1
      00000000H   SYMBOL    NUMBER   ---       XBPSTACK
      00000000H   SYMBOL    NUMBER   ---       XBPSTACKTOP
      00000000H   SYMBOL    NUMBER   ---       XDATALEN
      00000000H   SYMBOL    NUMBER   ---       XDATASTART
      01000000H   LINE      CODE     ---       #126
      01001107H   LINE      CODE     ---       #133
      01001109H   LINE      CODE     ---       #134
      0100110AH   LINE      CODE     ---       #135
      0100110BH   LINE      CODE     ---       #136
      0100110DH   LINE      CODE     ---       #185
      01001110H   LINE      CODE     ---       #196

      ---         MODULE    ---      ---       ?C_INIT
      0100114EH   PUBLIC    CODE     ---       ?C_START

      ---         MODULE    ---      ---       ?C?COPY
      01000CFBH   PUBLIC    CODE     ---       ?C?COPY

      ---         MODULE    ---      ---       ?C?IMUL
      01000D21H   PUBLIC    CODE     ---       ?C?IMUL

      ---         MODULE    ---      ---       ?C?UIDIV
      01000D33H   PUBLIC    CODE     ---       ?C?UIDIV

      ---         MODULE    ---      ---       ?C?ULCMP
      01000D88H   PUBLIC    CODE     ---       ?C?ULCMP

      ---         MODULE    ---      ---       ?C?ULSHR
      01000D99H   PUBLIC    CODE     ---       ?C?ULSHR

      ---         MODULE    ---      ---       ?C?LSHL
      01000DACH   PUBLIC    CODE     ---       ?C?LSHL

      ---         MODULE    ---      ---       ?C?LSTPDATA
      01000DBFH   PUBLIC    CODE     ---       ?C?LSTPDATA

      ---         MODULE    ---      ---       ?C?LSTKPDATA
      01000DCBH   PUBLIC    CODE     ---       ?C?LSTKPDATA

      ---         MODULE    ---      ---       ?C?LCASE
      01000DE4H   PUBLIC    CODE     ---       ?C?LCASE

Program Size: data=9.0 xdata=272 const=3 code=4857
LX51 RUN COMPLETE.  0 WARNING(S),  0 ERROR(S)
